Certificate:
    Data:
        Version: 3 (0x2)
        Serial Number: 4096 (0x1000)
    Signature Algorithm: sha256WithRSAEncryption
        Issuer: C=FR, ST=IDF, L=Paris, O=Fake CA for Test, CN=NodeOPCUA
        Validity
            Not Before: Jan 31 15:08:11 2018 GMT
            Not After : Jan 31 15:08:11 2019 GMT
        Subject: O=NodeOPCUA, CN=NodeOPCUA
        Subject Public Key Info:
            Public Key Algorithm: rsaEncryption
                Public-Key: (1024 bit)
                Modulus:
                    00:e5:04:26:8d:c7:42:f1:6b:ec:06:fb:49:e7:7f:
                    1c:c3:d7:0f:59:28:da:44:0d:88:ff:76:0c:97:36:
                    61:39:0b:48:34:62:6e:9a:2c:92:b0:cc:e7:65:f6:
                    34:80:45:4e:ae:5e:19:c1:1c:a8:ce:c3:d5:5a:b8:
                    41:52:1f:10:89:e5:e5:c7:cb:07:f7:4b:cf:c3:e4:
                    ea:0e:54:e0:e3:48:e1:3b:65:ed:a8:78:a3:c2:da:
                    48:aa:0d:7d:d1:1e:3b:b7:65:23:a3:5b:05:6e:06:
                    ae:4e:08:99:7d:cd:d8:7b:89:85:84:05:76:a1:51:
                    6f:8d:1b:55:81:c1:5c:02:53
                Exponent: 65537 (0x10001)
        X509v3 extensions:
            X509v3 Basic Constraints: critical
                CA:FALSE
            X509v3 Subject Key Identifier: 
                D2:3E:50:68:57:B5:69:68:B6:E3:59:D9:D0:A7:F7:18:47:B5:76:D8
            X509v3 Authority Key Identifier: 
                keyid:65:D3:23:17:4C:5A:86:22:C4:D8:9B:A0:E8:10:8A:8E:82:58:C8:2B
                DirName:/C=FR/ST=IDF/L=Paris/O=Fake CA for Test/CN=NodeOPCUA
                serial:CB:05:AB:ED:60:65:15:53

            X509v3 Subject Alternative Name: 
                URI:urn:localhost:NodeOPCUA-Client, DNS:localhost, DNS:localhost
            Netscape Comment: 
                OpenSSL Generated Certificate
            X509v3 Key Usage: critical
                Digital Signature, Non Repudiation, Key Encipherment, Data Encipherment, Key Agreement, Certificate Sign
            X509v3 Extended Key Usage: critical
                TLS Web Server Authentication, TLS Web Client Authentication
    Signature Algorithm: sha256WithRSAEncryption
         ac:95:01:32:2f:e8:76:e3:ed:b9:ab:cf:63:ac:5a:0b:e3:91:
         20:e2:8d:2f:20:b1:f9:c4:f6:c0:ab:9c:0d:94:9a:b7:e2:c9:
         6a:39:7b:09:e4:87:34:a1:26:a0:aa:3e:ab:c5:51:d5:a3:4c:
         f4:b1:fa:26:e6:ef:20:07:36:b5:37:49:2b:50:e3:13:7f:a6:
         a4:68:2b:99:50:8b:f1:ca:62:dd:aa:b1:97:2c:9b:82:bf:8f:
         26:bc:51:a3:20:4b:c3:b9:83:57:48:2a:fc:af:69:62:61:98:
         f1:56:a0:a6:7c:d7:1c:bf:ad:fe:35:09:68:2e:30:98:37:10:
         0d:a3:35:c6:f5:d9:6e:2a:31:76:6e:a0:8f:f8:9a:ea:4f:eb:
         c2:59:f1:e6:d8:37:34:53:fa:eb:c7:ec:e1:ca:07:20:10:57:
         4b:77:37:5d:bb:c9:8f:4b:4c:34:67:38:aa:e9:4d:4c:5a:54:
         33:48:3b:e8:76:36:2f:de:57:7e:c0:36:ac:59:56:f9:1f:08:
         b3:7a:c2:35:89:39:7a:92:1e:ba:05:58:29:4f:80:29:c1:b6:
         e9:78:1f:ad:e7:1b:92:04:44:73:94:d7:1a:ce:49:c9:2f:e0:
         65:2f:cb:bf:2b:5e:d0:f4:7a:6d:73:aa:ff:79:a7:d6:75:71:
         a9:6f:87:17
-----BEGIN CERTIFICATE-----
MIID3TCCAsWgAwIBAgICEAAwDQYJKoZIhvcNAQELBQAwWjELMAkGA1UEBhMCRlIx
DDAKBgNVBAgTA0lERjEOMAwGA1UEBxMFUGFyaXMxGTAXBgNVBAoTEEZha2UgQ0Eg
Zm9yIFRlc3QxEjAQBgNVBAMTCU5vZGVPUENVQTAeFw0xODAxMzExNTA4MTFaFw0x
OTAxMzExNTA4MTFaMCgxEjAQBgNVBAoTCU5vZGVPUENVQTESMBAGA1UEAxMJTm9k
ZU9QQ1VBMIGfMA0GCSqGSIb3DQEBAQUAA4GNADCBiQKBgQDlBCaNx0Lxa+wG+0nn
fxzD1w9ZKNpEDYj/dgyXNmE5C0g0Ym6aLJKwzOdl9jSARU6uXhnBHKjOw9VauEFS
HxCJ5eXHywf3S8/D5OoOVODjSOE7Ze2oeKPC2kiqDX3RHju3ZSOjWwVuBq5OCJl9
zdh7iYWEBXahUW+NG1WBwVwCUwIDAQABo4IBYTCCAV0wDAYDVR0TAQH/BAIwADAd
BgNVHQ4EFgQU0j5QaFe1aWi241nZ0Kf3GEe1dtgwgYwGA1UdIwSBhDCBgYAUZdMj
F0xahiLE2Jug6BCKjoJYyCuhXqRcMFoxCzAJBgNVBAYTAkZSMQwwCgYDVQQIEwNJ
REYxDjAMBgNVBAcTBVBhcmlzMRkwFwYDVQQKExBGYWtlIENBIGZvciBUZXN0MRIw
EAYDVQQDEwlOb2RlT1BDVUGCCQDLBavtYGUVUzA/BgNVHREEODA2hh51cm46bG9j
YWxob3N0Ok5vZGVPUENVQS1DbGllbnSCCWxvY2FsaG9zdIIJbG9jYWxob3N0MCwG
CWCGSAGG+EIBDQQfFh1PcGVuU1NMIEdlbmVyYXRlZCBDZXJ0aWZpY2F0ZTAOBgNV
HQ8BAf8EBAMCAvwwIAYDVR0lAQH/BBYwFAYIKwYBBQUHAwEGCCsGAQUFBwMCMA0G
CSqGSIb3DQEBCwUAA4IBAQCslQEyL+h24+25q89jrFoL45Eg4o0vILH5xPbAq5wN
lJq34slqOXsJ5Ic0oSagqj6rxVHVo0z0sfom5u8gBza1N0krUOMTf6akaCuZUIvx
ymLdqrGXLJuCv48mvFGjIEvDuYNXSCr8r2liYZjxVqCmfNccv63+NQloLjCYNxAN
ozXG9dluKjF2bqCP+JrqT+vCWfHm2Dc0U/rrx+zhygcgEFdLdzddu8mPS0w0Zziq
6U1MWlQzSDvodjYv3ld+wDasWVb5HwizesI1iTl6kh66BVgpT4ApwbbpeB+t5xuS
BERzlNcazknJL+BlL8u/K17Q9Hptc6r/eafWdXGpb4cX
-----END CERTIFICATE-----
-----BEGIN CERTIFICATE-----
MIIEkjCCA3qgAwIBAgIJAMsFq+1gZRVTMA0GCSqGSIb3DQEBCwUAMFoxCzAJBgNV
BAYTAkZSMQwwCgYDVQQIEwNJREYxDjAMBgNVBAcTBVBhcmlzMRkwFwYDVQQKExBG
YWtlIENBIGZvciBUZXN0MRIwEAYDVQQDEwlOb2RlT1BDVUEwHhcNMTgwMjAxMTUw
ODEyWhcNMjgwMTMwMTUwODEyWjBaMQswCQYDVQQGEwJGUjEMMAoGA1UECBMDSURG
MQ4wDAYDVQQHEwVQYXJpczEZMBcGA1UEChMQRmFrZSBDQSBmb3IgVGVzdDESMBAG
A1UEAxMJTm9kZU9QQ1VBMIIBIjANBgkqhkiG9w0BAQEFAAOCAQ8AMIIBCgKCAQEA
wo8lbCUHCrpvSv8bPirLeFmdMwyNxo7ZEQ83NNJWtGKCjmc3oQQONyjXaMaXTEyR
YUcWNjH9WjLv2L6Z3mjaVmPLANlr09vuz8/QPPwMubTWYHT0Q1yfL+YIAw+2fCe+
DSV36UabAeFSB76vOcD+FRUvgT+P2nxhn2u40N4hPrNA8S8vqTTIIxK1+oMaITR4
MUP6EH3qpvHy8QQEP+aA6Z2Hodac/PGrwbq/Vr/w+FHvRJuWbiwA2/ITjycKhegB
JDL8XbhMqLxes4Viz3RuG/29mj7sfQxKEugUf5MmQXPkb3HcMF0/EvFBtY80Y3gp
BPGt827806NfjKQ0+lrRJQIDAQABo4IBWTCCAVUwHQYDVR0OBBYEFGXTIxdMWoYi
xNiboOgQio6CWMgrMIGMBgNVHSMEgYQwgYGAFGXTIxdMWoYixNiboOgQio6CWMgr
oV6kXDBaMQswCQYDVQQGEwJGUjEMMAoGA1UECBMDSURGMQ4wDAYDVQQHEwVQYXJp
czEZMBcGA1UEChMQRmFrZSBDQSBmb3IgVGVzdDESMBAGA1UEAxMJTm9kZU9QQ1VB
ggkAywWr7WBlFVMwDAYDVR0TBAUwAwEB/zAOBgNVHQ8BAf8EBAMCAQYwVwYJYIZI
AYb4QgENBEoWSENBIENlcnRpZmljYXRlIGdlbmVyYXRlZCBieSBOb2RlLU9QQ1VB
IENlcnRpZmljYXRlIHV0aWxpdHkgdXNpbmcgb3BlbnNzbDAuBgNVHR8EJzAlMCOg
IaAfhh1odHRwOi8vbG9jYWxob3N0Ojg5MDAvY3JsLnBlbTANBgkqhkiG9w0BAQsF
AAOCAQEAgTH/iugj21/VCEnmKeIshAJWizYvhBlfTrG1PNSOjXzFuGTuo76BiNM5
kITpi5STukPiqvsgMqzLmo2w1e97utYQxkA8V9NXLdLo/+sEbfMeh9FZIs/vITCF
nuPvle3wET5fXAZ/k3R0tB4CSgmMSDMFkqgs5nk41K0qOotd4G4OwUs92STFb4Vq
XRhkMBuhG2mElCjqCxFoGt6wShtUD5MNERoHMdWDuZzhitBdGpUiVHBvZhu89Rat
RNN/tCzO5GzeA99BkdlvUfE7mIZsBZWA9h7EzWm5K86+XyDt0TCRYvJRqzvn5nwt
zBj70c1TDb/fmz5cctRvvwzBqn10Lw==
-----END CERTIFICATE-----
