Certificate Request:
    Data:
        Version: 0 (0x0)
        Subject: C=FR, O=NodeOPCUA, CN=NodeOPCUA
        Subject Public Key Info:
            Public Key Algorithm: rsaEncryption
                Public-Key: (1024 bit)
                Modulus:
                    00:ab:d3:7e:ac:1f:12:0e:e5:21:04:08:25:21:9c:
                    53:da:03:3a:27:4d:b7:0a:70:ab:21:d9:9d:09:c7:
                    d3:d6:a0:f2:35:64:9c:82:64:44:8f:cf:ac:2e:3a:
                    ef:37:d5:d0:cd:98:f5:8f:11:03:66:05:a7:fb:45:
                    67:d7:96:6c:c6:1a:01:fd:5d:29:cb:b7:d5:d0:6a:
                    a8:ca:b2:0b:45:ec:74:e6:5b:16:7d:a7:4b:41:b9:
                    06:52:85:b6:7c:b1:76:0a:af:73:83:14:be:3f:6b:
                    04:49:ac:6e:5e:09:d2:a7:2f:63:4f:89:f6:e2:4c:
                    8c:06:4d:ff:67:dc:69:39:dd
                Exponent: 65537 (0x10001)
        Attributes:
        Requested Extensions:
            X509v3 Basic Constraints: 
                CA:FALSE
            X509v3 Key Usage: critical
                Certificate Sign, CRL Sign
            X509v3 Subject Alternative Name: 
                URI:undefined
    Signature Algorithm: sha256WithRSAEncryption
         9a:ad:2d:f8:32:41:16:70:07:1d:c4:0c:87:c8:1c:55:ae:ed:
         a1:d1:fb:81:76:52:c5:2d:f4:f7:89:16:7a:a6:08:22:81:02:
         98:b2:32:61:26:3f:d3:48:41:88:be:a6:2a:f4:31:66:4c:18:
         14:3a:18:03:cb:ac:a1:61:d6:69:aa:4b:f6:86:11:0a:d4:de:
         3a:93:2a:3c:43:de:55:8e:74:42:d4:c9:3e:5c:c4:c8:32:62:
         1c:ed:6c:c6:01:90:c8:6e:e5:33:21:99:78:fa:2e:d7:38:f7:
         09:76:d1:b4:27:d8:5b:ca:33:32:34:3a:d9:34:c0:50:28:b1:
         28:98
-----BEGIN CERTIFICATE REQUEST-----
MIIBtzCCASACAQAwNTELMAkGA1UEBhMCRlIxEjAQBgNVBAoMCU5vZGVPUENVQTES
MBAGA1UEAwwJTm9kZU9QQ1VBMIGfMA0GCSqGSIb3DQEBAQUAA4GNADCBiQKBgQCr
036sHxIO5SEECCUhnFPaAzonTbcKcKsh2Z0Jx9PWoPI1ZJyCZESPz6wuOu831dDN
mPWPEQNmBaf7RWfXlmzGGgH9XSnLt9XQaqjKsgtF7HTmWxZ9p0tBuQZShbZ8sXYK
r3ODFL4/awRJrG5eCdKnL2NPifbiTIwGTf9n3Gk53QIDAQABoEIwQAYJKoZIhvcN
AQkOMTMwMTAJBgNVHRMEAjAAMA4GA1UdDwEB/wQEAwIBBjAUBgNVHREEDTALhgl1
bmRlZmluZWQwDQYJKoZIhvcNAQELBQADgYEAmq0t+DJBFnAHHcQMh8gcVa7todH7
gXZSxS3094kWeqYIIoECmLIyYSY/00hBiL6mKvQxZkwYFDoYA8usoWHWaapL9oYR
CtTeOpMqPEPeVY50QtTJPlzEyDJiHO1sxgGQyG7lMyGZePou1zj3CXbRtCfYW8oz
MjQ62TTAUCixKJg=
-----END CERTIFICATE REQUEST-----
