Certificate:
    Data:
        Version: 3 (0x2)
        Serial Number: 4098 (0x1002)
    Signature Algorithm: sha256WithRSAEncryption
        Issuer: C=FR, ST=IDF, L=Paris, O=Local NODE-OPCUA Certificate Authority, CN=NodeOPCUA-CA
        Validity
            Not Before: Apr 19 14:13:34 2018 GMT
            Not After : Apr 19 14:13:34 2019 GMT
        Subject: C=FR, O=NodeOPCUA, CN=NodeOPCUA
        Subject Public Key Info:
            Public Key Algorithm: rsaEncryption
                Public-Key: (2048 bit)
                Modulus:
                    00:cb:e8:c5:f1:6b:10:82:f3:26:3e:ec:18:40:95:
                    20:0d:9d:77:fd:b9:7b:8d:4e:fb:f1:ad:a7:06:30:
                    e7:bb:f5:46:a2:7c:b2:49:41:67:88:07:9d:38:d9:
                    59:46:4d:a3:7c:77:f9:fe:6f:c1:b9:42:a5:6f:b3:
                    5a:43:0e:14:4d:55:f5:29:8d:bb:b5:60:3f:ad:74:
                    c4:18:21:f6:8b:2f:63:75:ec:09:c3:0d:9a:92:08:
                    f6:0c:5e:af:97:6e:7d:2f:d8:2f:5a:90:56:63:31:
                    09:dd:40:07:5d:db:ce:e8:a2:d1:85:42:41:04:84:
                    f6:39:5c:84:19:fc:e3:e6:08:2a:6d:71:81:75:b3:
                    e6:d0:53:69:01:3f:25:8c:e7:6b:cd:41:9b:85:a5:
                    bb:0d:32:2f:40:c7:e9:84:c5:96:11:1d:c6:31:2b:
                    f3:58:35:f7:02:47:ba:09:1a:ee:76:00:19:76:92:
                    67:2d:b2:e2:53:59:fe:a1:bc:72:79:a0:97:c4:ac:
                    c9:68:ae:cd:be:75:6b:98:05:23:55:db:40:6d:22:
                    e4:9d:27:25:d6:1b:f2:37:e0:46:75:be:ff:ac:1b:
                    dc:75:06:eb:da:da:e4:bc:18:b8:31:7b:99:cf:d7:
                    53:d9:5d:c4:f8:64:64:8b:23:8e:72:6f:21:05:e7:
                    da:8d
                Exponent: 65537 (0x10001)
        X509v3 extensions:
            X509v3 Basic Constraints: critical
                CA:FALSE
            X509v3 Subject Key Identifier: 
                79:2D:C4:14:43:C4:46:19:30:12:24:54:CE:95:D1:1B:31:E2:DB:7D
            X509v3 Authority Key Identifier: 
                keyid:DA:C7:A8:18:75:0A:DD:19:01:81:96:CA:42:A9:55:8B:73:48:7A:36
                DirName:/C=FR/ST=IDF/L=Paris/O=Local NODE-OPCUA Certificate Authority/CN=NodeOPCUA-CA
                serial:BF:DA:73:A9:03:D6:6E:9C

            X509v3 Subject Alternative Name: 
                URI:urn:localhost:NodeOPCUA-Client, DNS:localhost, DNS:localhost
            Netscape Comment: 
                OpenSSL Generated Certificate
            X509v3 Key Usage: critical
                Digital Signature, Non Repudiation, Key Encipherment, Data Encipherment, Key Agreement, Certificate Sign
            X509v3 Extended Key Usage: critical
                TLS Web Server Authentication, TLS Web Client Authentication
    Signature Algorithm: sha256WithRSAEncryption
         68:8e:ac:4f:b3:86:56:03:17:90:fc:52:bf:cf:05:24:54:55:
         27:69:3b:fa:5d:08:90:02:0e:76:e4:9a:11:1a:fc:e1:70:14:
         21:6f:ee:12:62:15:10:e3:90:23:6f:be:39:98:1d:74:db:95:
         e7:46:e7:f3:65:07:a7:1a:f0:da:84:38:f7:b4:ea:24:9a:bc:
         a9:86:72:a3:e5:1d:24:78:31:26:e7:d3:e5:9d:69:87:4b:9d:
         0e:a2:53:e3:25:bd:d6:02:52:07:32:79:33:1f:69:f7:55:bf:
         f4:6b:10:77:a4:89:b0:64:bc:5b:f8:c3:3b:5c:5a:66:ff:05:
         2a:55:69:c7:5a:74:9a:88:3d:30:b6:0d:90:a6:e0:7b:69:d2:
         86:70:f4:56:d6:03:ad:b8:d9:ea:42:44:75:df:23:c9:49:b5:
         a5:7b:1e:72:5e:e3:2c:8a:01:9f:53:35:45:0a:4e:34:32:8e:
         7d:4a:40:9a:ab:56:e3:d7:bd:c3:3d:2f:59:40:59:ba:4c:98:
         95:3a:08:16:fd:b3:1c:85:32:2f:d0:49:3d:b0:96:a3:80:0b:
         cd:b9:1d:5d:5b:0b:78:fa:39:90:3a:5d:75:69:9d:b0:1f:0f:
         ed:f9:bb:52:38:15:cd:3f:2e:e4:a5:6d:57:77:a8:28:04:5e:
         2b:7b:a9:c3
-----BEGIN CERTIFICATE-----
MIIEpDCCA4ygAwIBAgICEAIwDQYJKoZIhvcNAQELBQAwczELMAkGA1UEBhMCRlIx
DDAKBgNVBAgTA0lERjEOMAwGA1UEBxMFUGFyaXMxLzAtBgNVBAoTJkxvY2FsIE5P
REUtT1BDVUEgQ2VydGlmaWNhdGUgQXV0aG9yaXR5MRUwEwYDVQQDEwxOb2RlT1BD
VUEtQ0EwIhgPMjAxODA0MTkxNDEzMzRaGA8yMDE5MDQxOTE0MTMzNFowNTELMAkG
A1UEBhMCRlIxEjAQBgNVBAoMCU5vZGVPUENVQTESMBAGA1UEAwwJTm9kZU9QQ1VB
MIIBIjANBgkqhkiG9w0BAQEFAAOCAQ8AMIIBCgKCAQEAy+jF8WsQgvMmPuwYQJUg
DZ13/bl7jU778a2nBjDnu/VGonyySUFniAedONlZRk2jfHf5/m/BuUKlb7NaQw4U
TVX1KY27tWA/rXTEGCH2iy9jdewJww2akgj2DF6vl259L9gvWpBWYzEJ3UAHXdvO
6KLRhUJBBIT2OVyEGfzj5ggqbXGBdbPm0FNpAT8ljOdrzUGbhaW7DTIvQMfphMWW
ER3GMSvzWDX3Ake6CRrudgAZdpJnLbLiU1n+obxyeaCXxKzJaK7NvnVrmAUjVdtA
bSLknScl1hvyN+BGdb7/rBvcdQbr2trkvBi4MXuZz9dT2V3E+GRkiyOOcm8hBefa
jQIDAQABo4IBejCCAXYwDAYDVR0TAQH/BAIwADAdBgNVHQ4EFgQUeS3EFEPERhkw
EiRUzpXRGzHi230wgaUGA1UdIwSBnTCBmoAU2seoGHUK3RkBgZbKQqlVi3NIejah
d6R1MHMxCzAJBgNVBAYTAkZSMQwwCgYDVQQIEwNJREYxDjAMBgNVBAcTBVBhcmlz
MS8wLQYDVQQKEyZMb2NhbCBOT0RFLU9QQ1VBIENlcnRpZmljYXRlIEF1dGhvcml0
eTEVMBMGA1UEAxMMTm9kZU9QQ1VBLUNBggkAv9pzqQPWbpwwPwYDVR0RBDgwNoYe
dXJuOmxvY2FsaG9zdDpOb2RlT1BDVUEtQ2xpZW50gglsb2NhbGhvc3SCCWxvY2Fs
aG9zdDAsBglghkgBhvhCAQ0EHxYdT3BlblNTTCBHZW5lcmF0ZWQgQ2VydGlmaWNh
dGUwDgYDVR0PAQH/BAQDAgL8MCAGA1UdJQEB/wQWMBQGCCsGAQUFBwMBBggrBgEF
BQcDAjANBgkqhkiG9w0BAQsFAAOCAQEAaI6sT7OGVgMXkPxSv88FJFRVJ2k7+l0I
kAIOduSaERr84XAUIW/uEmIVEOOQI2++OZgddNuV50bn82UHpxrw2oQ497TqJJq8
qYZyo+UdJHgxJufT5Z1ph0udDqJT4yW91gJSBzJ5Mx9p91W/9GsQd6SJsGS8W/jD
O1xaZv8FKlVpx1p0mog9MLYNkKbge2nShnD0VtYDrbjZ6kJEdd8jyUm1pXsecl7j
LIoBn1M1RQpONDKOfUpAmqtW49e9wz0vWUBZukyYlToIFv2zHIUyL9BJPbCWo4AL
zbkdXVsLePo5kDpddWmdsB8P7fm7UjgVzT8u5KVtV3eoKAReK3upww==
-----END CERTIFICATE-----
-----BEGIN CERTIFICATE-----
MIIE3TCCA8WgAwIBAgIJAL/ac6kD1m6cMA0GCSqGSIb3DQEBCwUAMHMxCzAJBgNV
BAYTAkZSMQwwCgYDVQQIEwNJREYxDjAMBgNVBAcTBVBhcmlzMS8wLQYDVQQKEyZM
b2NhbCBOT0RFLU9QQ1VBIENlcnRpZmljYXRlIEF1dGhvcml0eTEVMBMGA1UEAxMM
Tm9kZU9QQ1VBLUNBMB4XDTE4MDQyMDE0MTMzNVoXDTI4MDQxNzE0MTMzNVowczEL
MAkGA1UEBhMCRlIxDDAKBgNVBAgTA0lERjEOMAwGA1UEBxMFUGFyaXMxLzAtBgNV
BAoTJkxvY2FsIE5PREUtT1BDVUEgQ2VydGlmaWNhdGUgQXV0aG9yaXR5MRUwEwYD
VQQDEwxOb2RlT1BDVUEtQ0EwggEiMA0GCSqGSIb3DQEBAQUAA4IBDwAwggEKAoIB
AQC1/KvjwQPhJInB7+WeZMx3ARHCtzf46HzhV39aelmbvgyRq5qXc82pgAkN/a44
Zb6CQXcdApNIECDuY1ixrqMRtdgy9KBTmvx43vc4voGqUu5RJ2fTIUKNeojG1AXl
MAAl3Dif1dDE0lQl8L8ttmHKIgaRdN2bgNvpDcXwa9GzcO//ZM1mjINoASrJWdf0
wDhqt53y3MinrjdPjXOTkUd4fO98X3C8uRx1wz56fLpZRlaT8km7kZnIAgK1jzPK
Iuzim+ZPXobO/1AnOISV3wmDwYNTztgDyJ3aVxtovM4kme+coAuN+nfdFJzimcMz
jAw8iCiTqwHYsmHGxrqcNB31AgMBAAGjggFyMIIBbjAdBgNVHQ4EFgQU2seoGHUK
3RkBgZbKQqlVi3NIejYwgaUGA1UdIwSBnTCBmoAU2seoGHUK3RkBgZbKQqlVi3NI
ejahd6R1MHMxCzAJBgNVBAYTAkZSMQwwCgYDVQQIEwNJREYxDjAMBgNVBAcTBVBh
cmlzMS8wLQYDVQQKEyZMb2NhbCBOT0RFLU9QQ1VBIENlcnRpZmljYXRlIEF1dGhv
cml0eTEVMBMGA1UEAxMMTm9kZU9QQ1VBLUNBggkAv9pzqQPWbpwwDAYDVR0TBAUw
AwEB/zAOBgNVHQ8BAf8EBAMCAQYwVwYJYIZIAYb4QgENBEoWSENBIENlcnRpZmlj
YXRlIGdlbmVyYXRlZCBieSBOb2RlLU9QQ1VBIENlcnRpZmljYXRlIHV0aWxpdHkg
dXNpbmcgb3BlbnNzbDAuBgNVHR8EJzAlMCOgIaAfhh1odHRwOi8vbG9jYWxob3N0
Ojg5MDAvY3JsLnBlbTANBgkqhkiG9w0BAQsFAAOCAQEAo87NCTosGQzqtu7Z7K9a
SaTWWEeWpo+NahjnJXxBj4aiFbj5TG2QTRes5U9DIXRE4nH+4Shc6RRJEXVoh2eW
EEJb0PVSiNCUr1hC5PZNeoRUTnBIoQUA1pQh3Y8e33QVX/j7uY8+ILLtfLk7TqPa
CjHWt+qbmAFKeX/3Pn1iDwXcUCzHAl3Dx4ISeWLxqnihCeVOeC8djA8iMpMTAism
iZN5+k5gldmouIjHwARoqw8dP+HK2PSZ+2hnASp5b3tLVdRT89W55s8pOBDb5V93
rSuuALOfalkwmCq2szt+jzTF8JBW/CNAjHciGBGTAw2NDLpAfX0ZTbR9cgCpwgca
Sg==
-----END CERTIFICATE-----
