Certificate Request:
    Data:
        Version: 0 (0x0)
        Subject: C=FR, O=NodeOPCUA, CN=NodeOPCUA
        Subject Public Key Info:
            Public Key Algorithm: rsaEncryption
                Public-Key: (2048 bit)
                Modulus:
                    00:cb:e8:c5:f1:6b:10:82:f3:26:3e:ec:18:40:95:
                    20:0d:9d:77:fd:b9:7b:8d:4e:fb:f1:ad:a7:06:30:
                    e7:bb:f5:46:a2:7c:b2:49:41:67:88:07:9d:38:d9:
                    59:46:4d:a3:7c:77:f9:fe:6f:c1:b9:42:a5:6f:b3:
                    5a:43:0e:14:4d:55:f5:29:8d:bb:b5:60:3f:ad:74:
                    c4:18:21:f6:8b:2f:63:75:ec:09:c3:0d:9a:92:08:
                    f6:0c:5e:af:97:6e:7d:2f:d8:2f:5a:90:56:63:31:
                    09:dd:40:07:5d:db:ce:e8:a2:d1:85:42:41:04:84:
                    f6:39:5c:84:19:fc:e3:e6:08:2a:6d:71:81:75:b3:
                    e6:d0:53:69:01:3f:25:8c:e7:6b:cd:41:9b:85:a5:
                    bb:0d:32:2f:40:c7:e9:84:c5:96:11:1d:c6:31:2b:
                    f3:58:35:f7:02:47:ba:09:1a:ee:76:00:19:76:92:
                    67:2d:b2:e2:53:59:fe:a1:bc:72:79:a0:97:c4:ac:
                    c9:68:ae:cd:be:75:6b:98:05:23:55:db:40:6d:22:
                    e4:9d:27:25:d6:1b:f2:37:e0:46:75:be:ff:ac:1b:
                    dc:75:06:eb:da:da:e4:bc:18:b8:31:7b:99:cf:d7:
                    53:d9:5d:c4:f8:64:64:8b:23:8e:72:6f:21:05:e7:
                    da:8d
                Exponent: 65537 (0x10001)
        Attributes:
        Requested Extensions:
            X509v3 Basic Constraints: 
                CA:FALSE
            X509v3 Key Usage: critical
                Certificate Sign, CRL Sign
            X509v3 Subject Alternative Name: 
                URI:undefined
    Signature Algorithm: sha256WithRSAEncryption
         00:a8:1b:b6:ca:5e:4b:b6:e2:84:b4:49:91:96:6a:7c:92:47:
         e0:fc:cf:ba:eb:ca:94:ee:15:95:e0:05:9d:0c:2a:08:95:a9:
         0d:00:97:df:01:74:67:ee:7a:03:07:01:db:6f:48:14:e1:0e:
         f6:8d:9e:37:18:35:af:b7:6e:60:94:85:12:30:ab:94:e6:95:
         1d:f6:f4:07:23:cd:d7:9d:d6:6c:ce:db:63:7b:a3:2e:e7:6e:
         51:25:ed:66:a2:b7:1f:58:87:b7:54:f4:c9:19:44:e7:0e:91:
         29:9c:13:cd:dd:d5:53:c9:d2:36:47:9e:99:41:f1:e3:0e:47:
         5b:60:87:d0:50:29:41:ff:57:9a:2f:a1:5b:9f:9e:0c:67:ef:
         41:14:cc:3a:9a:fb:da:8c:3a:5e:0a:c9:25:a0:46:57:1f:dc:
         5d:ef:fa:57:12:ed:6f:ab:67:05:68:4f:0a:0c:eb:95:63:0d:
         be:f3:78:49:e7:5d:0d:04:75:e5:14:23:0f:3d:95:a4:a2:a9:
         9d:61:6e:c4:a5:7c:54:79:67:dc:75:d3:8d:68:73:19:4b:99:
         b0:8e:fe:a4:81:61:40:cd:4e:f7:04:f9:bb:f0:4e:78:39:a7:
         a0:52:fc:06:c7:32:11:8c:2d:25:ab:23:22:5a:fb:21:81:92:
         42:51:9e:10
-----BEGIN CERTIFICATE REQUEST-----
MIICvDCCAaQCAQAwNTELMAkGA1UEBhMCRlIxEjAQBgNVBAoMCU5vZGVPUENVQTES
MBAGA1UEAwwJTm9kZU9QQ1VBMIIBIjANBgkqhkiG9w0BAQEFAAOCAQ8AMIIBCgKC
AQEAy+jF8WsQgvMmPuwYQJUgDZ13/bl7jU778a2nBjDnu/VGonyySUFniAedONlZ
Rk2jfHf5/m/BuUKlb7NaQw4UTVX1KY27tWA/rXTEGCH2iy9jdewJww2akgj2DF6v
l259L9gvWpBWYzEJ3UAHXdvO6KLRhUJBBIT2OVyEGfzj5ggqbXGBdbPm0FNpAT8l
jOdrzUGbhaW7DTIvQMfphMWWER3GMSvzWDX3Ake6CRrudgAZdpJnLbLiU1n+obxy
eaCXxKzJaK7NvnVrmAUjVdtAbSLknScl1hvyN+BGdb7/rBvcdQbr2trkvBi4MXuZ
z9dT2V3E+GRkiyOOcm8hBefajQIDAQABoEIwQAYJKoZIhvcNAQkOMTMwMTAJBgNV
HRMEAjAAMA4GA1UdDwEB/wQEAwIBBjAUBgNVHREEDTALhgl1bmRlZmluZWQwDQYJ
KoZIhvcNAQELBQADggEBAACoG7bKXku24oS0SZGWanySR+D8z7rrypTuFZXgBZ0M
KgiVqQ0Al98BdGfuegMHAdtvSBThDvaNnjcYNa+3bmCUhRIwq5TmlR329Acjzded
1mzO22N7oy7nblEl7Waitx9Yh7dU9MkZROcOkSmcE83d1VPJ0jZHnplB8eMOR1tg
h9BQKUH/V5ovoVufngxn70EUzDqa+9qMOl4KySWgRlcf3F3v+lcS7W+rZwVoTwoM
65VjDb7zeEnnXQ0EdeUUIw89laSiqZ1hbsSlfFR5Z9x1041ocxlLmbCO/qSBYUDN
TvcE+bvwTng5p6BS/AbHMhGMLSWrIyJa+yGBkkJRnhA=
-----END CERTIFICATE REQUEST-----
