Certificate:
    Data:
        Version: 3 (0x2)
        Serial Number: 4105 (0x1009)
    Signature Algorithm: sha256WithRSAEncryption
        Issuer: C=FR, ST=IDF, L=Paris, O=Fake CA for Test, CN=NodeOPCUA
        Validity
            Not Before: Jan 31 15:08:11 2018 GMT
            Not After : Jan 31 15:08:11 2019 GMT
        Subject: O=NodeOPCUA, CN=NodeOPCUA
        Subject Public Key Info:
            Public Key Algorithm: rsaEncryption
                Public-Key: (2048 bit)
                Modulus:
                    00:ee:45:29:bc:d8:35:85:33:59:b2:ff:4d:34:5a:
                    fc:c4:08:2b:cb:f9:9b:e5:09:9f:7d:5b:d7:a3:20:
                    3b:0c:b5:27:bd:2d:54:bb:fd:c8:1c:f5:9d:ef:42:
                    ec:65:25:3f:7e:c5:be:85:8f:77:52:06:d5:b9:b1:
                    8c:51:0f:03:fc:e5:59:bc:65:39:f0:1f:be:81:3d:
                    15:e1:63:25:ff:a7:be:87:ff:13:a8:e9:66:8b:2d:
                    24:14:cd:bc:66:8e:86:21:90:58:ad:de:c6:34:5b:
                    b4:f7:b9:a1:7e:b1:77:da:74:cf:c0:c9:ee:e2:8b:
                    f3:0f:3f:70:d8:21:9d:0e:9c:60:f8:67:83:cd:ff:
                    3d:c7:8c:84:bb:8b:91:55:d1:ea:c7:f6:9e:8b:6e:
                    f6:93:db:07:65:62:a9:c9:c2:d1:a0:10:2e:8a:e7:
                    25:f0:ed:1c:69:d2:cc:fb:8f:82:d8:64:8c:cc:5d:
                    a8:65:20:7d:ed:e1:41:84:0f:4b:54:7e:57:08:aa:
                    53:a0:75:66:22:d2:ed:9d:84:15:b5:45:66:5b:5f:
                    ef:50:b4:be:33:33:8c:f6:63:a0:14:13:ca:1b:63:
                    3f:cf:4d:30:eb:7f:d1:6c:4c:0b:a2:a0:ea:31:2e:
                    00:6a:e8:18:39:80:5a:b8:09:a3:72:f3:da:0d:ae:
                    a9:c3
                Exponent: 65537 (0x10001)
        X509v3 extensions:
            X509v3 Basic Constraints: critical
                CA:FALSE
            X509v3 Subject Key Identifier: 
                74:D8:9F:5C:CA:4E:2D:E5:80:95:25:50:AF:BD:B5:41:E6:C9:3F:81
            X509v3 Authority Key Identifier: 
                keyid:65:D3:23:17:4C:5A:86:22:C4:D8:9B:A0:E8:10:8A:8E:82:58:C8:2B
                DirName:/C=FR/ST=IDF/L=Paris/O=Fake CA for Test/CN=NodeOPCUA
                serial:CB:05:AB:ED:60:65:15:53

            X509v3 Subject Alternative Name: 
                URI:urn:localhost:NodeOPCUA-DiscoveryServer, DNS:localhost, DNS:localhost
            Netscape Comment: 
                OpenSSL Generated Certificate
            X509v3 Key Usage: critical
                Digital Signature, Non Repudiation, Key Encipherment, Data Encipherment, Key Agreement, Certificate Sign
            X509v3 Extended Key Usage: critical
                TLS Web Server Authentication, TLS Web Client Authentication
    Signature Algorithm: sha256WithRSAEncryption
         0f:56:f0:9b:6d:52:c5:43:b0:6c:c7:61:d4:da:d0:7e:a6:cd:
         47:5a:0b:c5:80:19:13:cf:b3:e7:14:0d:e9:5d:5e:ef:43:65:
         60:15:57:f6:d9:b0:70:ec:2b:c2:0f:d2:25:20:9c:c6:e3:95:
         05:cc:52:08:a9:63:5e:77:a1:a0:f5:bc:44:16:e2:27:de:43:
         81:60:10:cb:c2:43:88:78:5b:db:13:20:4f:19:af:80:05:bd:
         db:a0:d4:21:bc:7e:78:89:11:d9:6a:df:e2:ee:a8:bc:02:f1:
         5c:8c:da:e1:9c:7d:a4:8b:2f:2e:f1:cb:6a:47:f7:35:93:c9:
         4a:b9:3c:fd:d2:0d:93:e8:e9:51:d2:49:2b:02:6f:99:35:92:
         98:05:29:af:04:09:0a:1d:1f:df:f4:54:ec:16:10:76:32:9f:
         1a:6e:46:3c:9d:d4:bc:2f:94:f6:47:b7:4a:aa:bd:ea:b6:66:
         7e:91:5b:f7:d3:6b:68:15:3a:3a:67:83:5a:5c:31:19:79:df:
         0c:04:e9:a6:ea:f2:ec:3d:43:de:43:50:d6:4d:a4:4d:38:63:
         32:67:d3:d0:44:97:23:ba:8d:e7:8a:fe:40:8e:31:b9:65:8e:
         9c:ba:9c:73:e6:fc:54:09:85:a9:5e:c9:5e:7d:46:c9:02:23:
         fb:1b:f0:a3
-----BEGIN CERTIFICATE-----
MIIEajCCA1KgAwIBAgICEAkwDQYJKoZIhvcNAQELBQAwWjELMAkGA1UEBhMCRlIx
DDAKBgNVBAgTA0lERjEOMAwGA1UEBxMFUGFyaXMxGTAXBgNVBAoTEEZha2UgQ0Eg
Zm9yIFRlc3QxEjAQBgNVBAMTCU5vZGVPUENVQTAeFw0xODAxMzExNTA4MTFaFw0x
OTAxMzExNTA4MTFaMCgxEjAQBgNVBAoTCU5vZGVPUENVQTESMBAGA1UEAxMJTm9k
ZU9QQ1VBMIIBIjANBgkqhkiG9w0BAQEFAAOCAQ8AMIIBCgKCAQEA7kUpvNg1hTNZ
sv9NNFr8xAgry/mb5QmffVvXoyA7DLUnvS1Uu/3IHPWd70LsZSU/fsW+hY93UgbV
ubGMUQ8D/OVZvGU58B++gT0V4WMl/6e+h/8TqOlmiy0kFM28Zo6GIZBYrd7GNFu0
97mhfrF32nTPwMnu4ovzDz9w2CGdDpxg+GeDzf89x4yEu4uRVdHqx/aei272k9sH
ZWKpycLRoBAuiucl8O0cadLM+4+C2GSMzF2oZSB97eFBhA9LVH5XCKpToHVmItLt
nYQVtUVmW1/vULS+MzOM9mOgFBPKG2M/z00w63/RbEwLoqDqMS4AaugYOYBauAmj
cvPaDa6pwwIDAQABo4IBajCCAWYwDAYDVR0TAQH/BAIwADAdBgNVHQ4EFgQUdNif
XMpOLeWAlSVQr721QebJP4EwgYwGA1UdIwSBhDCBgYAUZdMjF0xahiLE2Jug6BCK
joJYyCuhXqRcMFoxCzAJBgNVBAYTAkZSMQwwCgYDVQQIEwNJREYxDjAMBgNVBAcT
BVBhcmlzMRkwFwYDVQQKExBGYWtlIENBIGZvciBUZXN0MRIwEAYDVQQDEwlOb2Rl
T1BDVUGCCQDLBavtYGUVUzBIBgNVHREEQTA/hid1cm46bG9jYWxob3N0Ok5vZGVP
UENVQS1EaXNjb3ZlcnlTZXJ2ZXKCCWxvY2FsaG9zdIIJbG9jYWxob3N0MCwGCWCG
SAGG+EIBDQQfFh1PcGVuU1NMIEdlbmVyYXRlZCBDZXJ0aWZpY2F0ZTAOBgNVHQ8B
Af8EBAMCAvwwIAYDVR0lAQH/BBYwFAYIKwYBBQUHAwEGCCsGAQUFBwMCMA0GCSqG
SIb3DQEBCwUAA4IBAQAPVvCbbVLFQ7Bsx2HU2tB+ps1HWgvFgBkTz7PnFA3pXV7v
Q2VgFVf22bBw7CvCD9IlIJzG45UFzFIIqWNed6Gg9bxEFuIn3kOBYBDLwkOIeFvb
EyBPGa+ABb3boNQhvH54iRHZat/i7qi8AvFcjNrhnH2kiy8u8ctqR/c1k8lKuTz9
0g2T6OlR0kkrAm+ZNZKYBSmvBAkKHR/f9FTsFhB2Mp8abkY8ndS8L5T2R7dKqr3q
tmZ+kVv302toFTo6Z4NaXDEZed8MBOmm6vLsPUPeQ1DWTaRNOGMyZ9PQRJcjuo3n
iv5AjjG5ZY6cupxz5vxUCYWpXslefUbJAiP7G/Cj
-----END CERTIFICATE-----
-----BEGIN CERTIFICATE-----
MIIEkjCCA3qgAwIBAgIJAMsFq+1gZRVTMA0GCSqGSIb3DQEBCwUAMFoxCzAJBgNV
BAYTAkZSMQwwCgYDVQQIEwNJREYxDjAMBgNVBAcTBVBhcmlzMRkwFwYDVQQKExBG
YWtlIENBIGZvciBUZXN0MRIwEAYDVQQDEwlOb2RlT1BDVUEwHhcNMTgwMjAxMTUw
ODEyWhcNMjgwMTMwMTUwODEyWjBaMQswCQYDVQQGEwJGUjEMMAoGA1UECBMDSURG
MQ4wDAYDVQQHEwVQYXJpczEZMBcGA1UEChMQRmFrZSBDQSBmb3IgVGVzdDESMBAG
A1UEAxMJTm9kZU9QQ1VBMIIBIjANBgkqhkiG9w0BAQEFAAOCAQ8AMIIBCgKCAQEA
wo8lbCUHCrpvSv8bPirLeFmdMwyNxo7ZEQ83NNJWtGKCjmc3oQQONyjXaMaXTEyR
YUcWNjH9WjLv2L6Z3mjaVmPLANlr09vuz8/QPPwMubTWYHT0Q1yfL+YIAw+2fCe+
DSV36UabAeFSB76vOcD+FRUvgT+P2nxhn2u40N4hPrNA8S8vqTTIIxK1+oMaITR4
MUP6EH3qpvHy8QQEP+aA6Z2Hodac/PGrwbq/Vr/w+FHvRJuWbiwA2/ITjycKhegB
JDL8XbhMqLxes4Viz3RuG/29mj7sfQxKEugUf5MmQXPkb3HcMF0/EvFBtY80Y3gp
BPGt827806NfjKQ0+lrRJQIDAQABo4IBWTCCAVUwHQYDVR0OBBYEFGXTIxdMWoYi
xNiboOgQio6CWMgrMIGMBgNVHSMEgYQwgYGAFGXTIxdMWoYixNiboOgQio6CWMgr
oV6kXDBaMQswCQYDVQQGEwJGUjEMMAoGA1UECBMDSURGMQ4wDAYDVQQHEwVQYXJp
czEZMBcGA1UEChMQRmFrZSBDQSBmb3IgVGVzdDESMBAGA1UEAxMJTm9kZU9QQ1VB
ggkAywWr7WBlFVMwDAYDVR0TBAUwAwEB/zAOBgNVHQ8BAf8EBAMCAQYwVwYJYIZI
AYb4QgENBEoWSENBIENlcnRpZmljYXRlIGdlbmVyYXRlZCBieSBOb2RlLU9QQ1VB
IENlcnRpZmljYXRlIHV0aWxpdHkgdXNpbmcgb3BlbnNzbDAuBgNVHR8EJzAlMCOg
IaAfhh1odHRwOi8vbG9jYWxob3N0Ojg5MDAvY3JsLnBlbTANBgkqhkiG9w0BAQsF
AAOCAQEAgTH/iugj21/VCEnmKeIshAJWizYvhBlfTrG1PNSOjXzFuGTuo76BiNM5
kITpi5STukPiqvsgMqzLmo2w1e97utYQxkA8V9NXLdLo/+sEbfMeh9FZIs/vITCF
nuPvle3wET5fXAZ/k3R0tB4CSgmMSDMFkqgs5nk41K0qOotd4G4OwUs92STFb4Vq
XRhkMBuhG2mElCjqCxFoGt6wShtUD5MNERoHMdWDuZzhitBdGpUiVHBvZhu89Rat
RNN/tCzO5GzeA99BkdlvUfE7mIZsBZWA9h7EzWm5K86+XyDt0TCRYvJRqzvn5nwt
zBj70c1TDb/fmz5cctRvvwzBqn10Lw==
-----END CERTIFICATE-----
