Certificate:
    Data:
        Version: 3 (0x2)
        Serial Number: 4106 (0x100a)
    Signature Algorithm: sha256WithRSAEncryption
        Issuer: O=NodeOPCUA, CN=NodeOPCUA
        Validity
            Not Before: Jan 31 15:08:11 2018 GMT
            Not After : Jan 31 15:08:11 2019 GMT
        Subject: O=NodeOPCUA, CN=NodeOPCUA
        Subject Public Key Info:
            Public Key Algorithm: rsaEncryption
                Public-Key: (1024 bit)
                Modulus:
                    00:e9:06:64:f0:6a:5c:35:cf:ea:0d:10:0d:8f:aa:
                    9e:ca:a6:e1:d0:b7:dd:e5:3d:c3:53:60:e6:8c:9c:
                    19:b7:47:4d:7e:d2:27:6b:88:25:b5:6b:b2:b6:59:
                    07:cd:11:05:18:50:c3:92:dc:3a:52:e7:9a:2c:fe:
                    a7:6f:f9:45:32:33:dc:50:81:4d:1d:fe:c0:46:18:
                    93:bc:0d:90:a6:20:f0:47:64:9e:ae:73:8b:a5:90:
                    7b:d5:a8:8b:68:61:ba:92:a2:30:70:fe:57:44:03:
                    e8:20:a5:bc:28:c2:b6:de:80:79:56:a3:df:24:25:
                    39:55:1f:2d:bf:00:0a:8c:ad
                Exponent: 65537 (0x10001)
        X509v3 extensions:
            X509v3 Basic Constraints: critical
                CA:FALSE
            X509v3 Subject Key Identifier: 
                6D:41:80:BB:1A:8A:77:D2:BD:D3:7D:F8:F3:C4:C0:E2:A4:4C:D2:E7
            X509v3 Authority Key Identifier: 
                keyid:6D:41:80:BB:1A:8A:77:D2:BD:D3:7D:F8:F3:C4:C0:E2:A4:4C:D2:E7
                DirName:/O=NodeOPCUA/CN=NodeOPCUA
                serial:10:0A

            X509v3 Subject Alternative Name: 
                URI:urn:localhost:NodeOPCUA-DiscoveryServer, DNS:localhost, DNS:localhost
            Netscape Comment: 
                OpenSSL Generated Certificate
            X509v3 Key Usage: critical
                Digital Signature, Non Repudiation, Key Encipherment, Data Encipherment, Key Agreement, Certificate Sign
            X509v3 Extended Key Usage: critical
                TLS Web Server Authentication, TLS Web Client Authentication
    Signature Algorithm: sha256WithRSAEncryption
         e2:2b:d3:31:d7:f4:5b:42:2d:2e:16:3b:d7:15:61:91:5e:34:
         fb:17:7a:fd:d5:dd:08:38:ac:a3:d9:31:69:c9:5c:03:d7:8c:
         74:b3:45:79:86:14:d5:97:3b:e6:a3:f3:c9:fa:fa:9e:f9:e7:
         c4:4f:b9:63:57:f2:e2:37:19:9a:e7:dd:70:33:a7:3e:11:af:
         e6:f5:6f:82:49:20:fd:19:bb:4e:df:ff:50:af:7d:cc:a7:df:
         24:e3:58:54:bf:27:11:87:31:28:f1:31:81:60:85:fa:ff:b9:
         df:60:50:6b:f3:13:82:7a:7d:58:74:17:7b:1d:1e:7b:ac:a9:
         3c:47
-----BEGIN CERTIFICATE-----
MIIC9zCCAmCgAwIBAgICEAowDQYJKoZIhvcNAQELBQAwKDESMBAGA1UEChMJTm9k
ZU9QQ1VBMRIwEAYDVQQDEwlOb2RlT1BDVUEwHhcNMTgwMTMxMTUwODExWhcNMTkw
MTMxMTUwODExWjAoMRIwEAYDVQQKEwlOb2RlT1BDVUExEjAQBgNVBAMTCU5vZGVP
UENVQTCBnzANBgkqhkiG9w0BAQEFAAOBjQAwgYkCgYEA6QZk8GpcNc/qDRANj6qe
yqbh0Lfd5T3DU2DmjJwZt0dNftIna4gltWuytlkHzREFGFDDktw6UueaLP6nb/lF
MjPcUIFNHf7ARhiTvA2QpiDwR2SernOLpZB71aiLaGG6kqIwcP5XRAPoIKW8KMK2
3oB5VqPfJCU5VR8tvwAKjK0CAwEAAaOCAS4wggEqMAwGA1UdEwEB/wQCMAAwHQYD
VR0OBBYEFG1BgLsainfSvdN9+PPEwOKkTNLnMFEGA1UdIwRKMEiAFG1BgLsainfS
vdN9+PPEwOKkTNLnoSykKjAoMRIwEAYDVQQKEwlOb2RlT1BDVUExEjAQBgNVBAMT
CU5vZGVPUENVQYICEAowSAYDVR0RBEEwP4YndXJuOmxvY2FsaG9zdDpOb2RlT1BD
VUEtRGlzY292ZXJ5U2VydmVygglsb2NhbGhvc3SCCWxvY2FsaG9zdDAsBglghkgB
hvhCAQ0EHxYdT3BlblNTTCBHZW5lcmF0ZWQgQ2VydGlmaWNhdGUwDgYDVR0PAQH/
BAQDAgL8MCAGA1UdJQEB/wQWMBQGCCsGAQUFBwMBBggrBgEFBQcDAjANBgkqhkiG
9w0BAQsFAAOBgQDiK9Mx1/RbQi0uFjvXFWGRXjT7F3r91d0IOKyj2TFpyVwD14x0
s0V5hhTVlzvmo/PJ+vqe+efET7ljV/LiNxma591wM6c+Ea/m9W+CSSD9GbtO3/9Q
r33Mp98k41hUvycRhzEo8TGBYIX6/7nfYFBr8xOCen1YdBd7HR57rKk8Rw==
-----END CERTIFICATE-----
