Certificate:
    Data:
        Version: 3 (0x2)
        Serial Number: 4107 (0x100b)
    Signature Algorithm: sha256WithRSAEncryption
        Issuer: O=NodeOPCUA, CN=NodeOPCUA
        Validity
            Not Before: Jan 31 15:08:11 2018 GMT
            Not After : Jan 31 15:08:11 2019 GMT
        Subject: O=NodeOPCUA, CN=NodeOPCUA
        Subject Public Key Info:
            Public Key Algorithm: rsaEncryption
                Public-Key: (2048 bit)
                Modulus:
                    00:ee:45:29:bc:d8:35:85:33:59:b2:ff:4d:34:5a:
                    fc:c4:08:2b:cb:f9:9b:e5:09:9f:7d:5b:d7:a3:20:
                    3b:0c:b5:27:bd:2d:54:bb:fd:c8:1c:f5:9d:ef:42:
                    ec:65:25:3f:7e:c5:be:85:8f:77:52:06:d5:b9:b1:
                    8c:51:0f:03:fc:e5:59:bc:65:39:f0:1f:be:81:3d:
                    15:e1:63:25:ff:a7:be:87:ff:13:a8:e9:66:8b:2d:
                    24:14:cd:bc:66:8e:86:21:90:58:ad:de:c6:34:5b:
                    b4:f7:b9:a1:7e:b1:77:da:74:cf:c0:c9:ee:e2:8b:
                    f3:0f:3f:70:d8:21:9d:0e:9c:60:f8:67:83:cd:ff:
                    3d:c7:8c:84:bb:8b:91:55:d1:ea:c7:f6:9e:8b:6e:
                    f6:93:db:07:65:62:a9:c9:c2:d1:a0:10:2e:8a:e7:
                    25:f0:ed:1c:69:d2:cc:fb:8f:82:d8:64:8c:cc:5d:
                    a8:65:20:7d:ed:e1:41:84:0f:4b:54:7e:57:08:aa:
                    53:a0:75:66:22:d2:ed:9d:84:15:b5:45:66:5b:5f:
                    ef:50:b4:be:33:33:8c:f6:63:a0:14:13:ca:1b:63:
                    3f:cf:4d:30:eb:7f:d1:6c:4c:0b:a2:a0:ea:31:2e:
                    00:6a:e8:18:39:80:5a:b8:09:a3:72:f3:da:0d:ae:
                    a9:c3
                Exponent: 65537 (0x10001)
        X509v3 extensions:
            X509v3 Basic Constraints: critical
                CA:FALSE
            X509v3 Subject Key Identifier: 
                74:D8:9F:5C:CA:4E:2D:E5:80:95:25:50:AF:BD:B5:41:E6:C9:3F:81
            X509v3 Authority Key Identifier: 
                keyid:74:D8:9F:5C:CA:4E:2D:E5:80:95:25:50:AF:BD:B5:41:E6:C9:3F:81
                DirName:/O=NodeOPCUA/CN=NodeOPCUA
                serial:10:0B

            X509v3 Subject Alternative Name: 
                URI:urn:localhost:NodeOPCUA-DiscoveryServer, DNS:localhost, DNS:localhost
            Netscape Comment: 
                OpenSSL Generated Certificate
            X509v3 Key Usage: critical
                Digital Signature, Non Repudiation, Key Encipherment, Data Encipherment, Key Agreement, Certificate Sign
            X509v3 Extended Key Usage: critical
                TLS Web Server Authentication, TLS Web Client Authentication
    Signature Algorithm: sha256WithRSAEncryption
         62:15:67:17:bf:d0:22:1f:3f:62:8c:b6:a1:03:d2:ff:80:03:
         c0:9d:0c:f9:fa:03:a3:19:49:58:35:dd:7b:35:3a:d4:db:26:
         bf:88:dc:13:1a:cb:e5:fd:ce:8e:d2:0a:24:eb:28:32:e1:a5:
         3f:b1:65:04:dd:dc:61:8d:fb:e7:41:36:0f:47:a3:85:14:bf:
         7d:ca:be:ef:74:7f:8f:ad:df:d6:5c:a7:2b:8f:05:47:21:91:
         55:c8:b8:62:12:df:7d:35:1d:b0:24:26:a3:cb:28:33:77:c1:
         6a:ab:6f:4e:f2:45:03:b6:bf:65:8b:70:2c:73:5f:0a:bb:21:
         14:7f:bc:97:03:6b:98:5c:7c:02:47:33:a9:ad:4e:61:00:30:
         9a:5e:83:d7:16:cd:2c:a9:59:1e:0c:7d:cf:87:43:10:9c:69:
         01:67:39:b3:a4:35:08:fb:7b:96:c5:ab:af:91:70:9c:69:13:
         e4:3e:22:50:43:f9:32:72:06:3f:a9:da:32:8d:a9:90:4f:d3:
         c6:66:f3:e9:33:5a:68:bd:45:2d:a3:52:69:34:10:45:08:4d:
         f6:b3:dd:64:f8:89:d6:4f:58:b5:3b:bd:19:f7:b6:8c:c6:e9:
         76:5f:87:a3:aa:de:9d:54:5e:1c:ec:32:31:13:6b:94:77:5f:
         68:14:f5:58
-----BEGIN CERTIFICATE-----
MIID/DCCAuSgAwIBAgICEAswDQYJKoZIhvcNAQELBQAwKDESMBAGA1UEChMJTm9k
ZU9QQ1VBMRIwEAYDVQQDEwlOb2RlT1BDVUEwHhcNMTgwMTMxMTUwODExWhcNMTkw
MTMxMTUwODExWjAoMRIwEAYDVQQKEwlOb2RlT1BDVUExEjAQBgNVBAMTCU5vZGVP
UENVQTCCASIwDQYJKoZIhvcNAQEBBQADggEPADCCAQoCggEBAO5FKbzYNYUzWbL/
TTRa/MQIK8v5m+UJn31b16MgOwy1J70tVLv9yBz1ne9C7GUlP37FvoWPd1IG1bmx
jFEPA/zlWbxlOfAfvoE9FeFjJf+nvof/E6jpZostJBTNvGaOhiGQWK3exjRbtPe5
oX6xd9p0z8DJ7uKL8w8/cNghnQ6cYPhng83/PceMhLuLkVXR6sf2notu9pPbB2Vi
qcnC0aAQLornJfDtHGnSzPuPgthkjMxdqGUgfe3hQYQPS1R+VwiqU6B1ZiLS7Z2E
FbVFZltf71C0vjMzjPZjoBQTyhtjP89NMOt/0WxMC6Kg6jEuAGroGDmAWrgJo3Lz
2g2uqcMCAwEAAaOCAS4wggEqMAwGA1UdEwEB/wQCMAAwHQYDVR0OBBYEFHTYn1zK
Ti3lgJUlUK+9tUHmyT+BMFEGA1UdIwRKMEiAFHTYn1zKTi3lgJUlUK+9tUHmyT+B
oSykKjAoMRIwEAYDVQQKEwlOb2RlT1BDVUExEjAQBgNVBAMTCU5vZGVPUENVQYIC
EAswSAYDVR0RBEEwP4YndXJuOmxvY2FsaG9zdDpOb2RlT1BDVUEtRGlzY292ZXJ5
U2VydmVygglsb2NhbGhvc3SCCWxvY2FsaG9zdDAsBglghkgBhvhCAQ0EHxYdT3Bl
blNTTCBHZW5lcmF0ZWQgQ2VydGlmaWNhdGUwDgYDVR0PAQH/BAQDAgL8MCAGA1Ud
JQEB/wQWMBQGCCsGAQUFBwMBBggrBgEFBQcDAjANBgkqhkiG9w0BAQsFAAOCAQEA
YhVnF7/QIh8/Yoy2oQPS/4ADwJ0M+foDoxlJWDXdezU61Nsmv4jcExrL5f3OjtIK
JOsoMuGlP7FlBN3cYY3750E2D0ejhRS/fcq+73R/j63f1lynK48FRyGRVci4YhLf
fTUdsCQmo8soM3fBaqtvTvJFA7a/ZYtwLHNfCrshFH+8lwNrmFx8Akczqa1OYQAw
ml6D1xbNLKlZHgx9z4dDEJxpAWc5s6Q1CPt7lsWrr5FwnGkT5D4iUEP5MnIGP6na
Mo2pkE/Txmbz6TNaaL1FLaNSaTQQRQhN9rPdZPiJ1k9YtTu9Gfe2jMbpdl+Ho6re
nVReHOwyMRNrlHdfaBT1WA==
-----END CERTIFICATE-----
