Certificate:
    Data:
        Version: 3 (0x2)
        Serial Number: 4104 (0x1008)
    Signature Algorithm: sha256WithRSAEncryption
        Issuer: C=FR, ST=IDF, L=Paris, O=Fake CA for Test, CN=NodeOPCUA
        Validity
            Not Before: Jan 31 15:08:11 2018 GMT
            Not After : Jan 31 15:08:11 2019 GMT
        Subject: O=NodeOPCUA, CN=NodeOPCUA
        Subject Public Key Info:
            Public Key Algorithm: rsaEncryption
                Public-Key: (1024 bit)
                Modulus:
                    00:e9:06:64:f0:6a:5c:35:cf:ea:0d:10:0d:8f:aa:
                    9e:ca:a6:e1:d0:b7:dd:e5:3d:c3:53:60:e6:8c:9c:
                    19:b7:47:4d:7e:d2:27:6b:88:25:b5:6b:b2:b6:59:
                    07:cd:11:05:18:50:c3:92:dc:3a:52:e7:9a:2c:fe:
                    a7:6f:f9:45:32:33:dc:50:81:4d:1d:fe:c0:46:18:
                    93:bc:0d:90:a6:20:f0:47:64:9e:ae:73:8b:a5:90:
                    7b:d5:a8:8b:68:61:ba:92:a2:30:70:fe:57:44:03:
                    e8:20:a5:bc:28:c2:b6:de:80:79:56:a3:df:24:25:
                    39:55:1f:2d:bf:00:0a:8c:ad
                Exponent: 65537 (0x10001)
        X509v3 extensions:
            X509v3 Basic Constraints: critical
                CA:FALSE
            X509v3 Subject Key Identifier: 
                6D:41:80:BB:1A:8A:77:D2:BD:D3:7D:F8:F3:C4:C0:E2:A4:4C:D2:E7
            X509v3 Authority Key Identifier: 
                keyid:65:D3:23:17:4C:5A:86:22:C4:D8:9B:A0:E8:10:8A:8E:82:58:C8:2B
                DirName:/C=FR/ST=IDF/L=Paris/O=Fake CA for Test/CN=NodeOPCUA
                serial:CB:05:AB:ED:60:65:15:53

            X509v3 Subject Alternative Name: 
                URI:urn:localhost:NodeOPCUA-DiscoveryServer, DNS:localhost, DNS:localhost
            Netscape Comment: 
                OpenSSL Generated Certificate
            X509v3 Key Usage: critical
                Digital Signature, Non Repudiation, Key Encipherment, Data Encipherment, Key Agreement, Certificate Sign
            X509v3 Extended Key Usage: critical
                TLS Web Server Authentication, TLS Web Client Authentication
    Signature Algorithm: sha256WithRSAEncryption
         29:73:36:65:b0:6c:31:39:4d:6e:16:4d:37:82:d7:fc:91:ec:
         26:8a:c1:10:16:e7:82:b9:4f:4a:ed:45:25:33:d7:0d:fd:b8:
         02:40:20:53:04:02:82:92:d0:59:95:62:cb:e5:8a:43:1d:c5:
         f2:05:d6:7d:6b:8e:63:e7:d9:33:88:f2:d1:ff:0e:0f:16:54:
         4c:f6:6f:12:94:cc:91:35:da:a4:11:fa:0d:9b:0c:af:dd:98:
         92:45:3c:22:94:3b:7e:fd:53:40:06:b1:87:d5:b6:fa:7b:85:
         16:e9:1f:51:34:be:fb:d3:c5:9c:35:f9:cd:4c:42:6d:63:2b:
         a0:e3:ac:b5:6d:48:ce:0f:08:3a:c7:05:cb:8d:c4:e2:58:b6:
         ca:48:9b:a3:ec:c2:15:d7:f6:48:c2:4c:52:a0:b9:06:0d:b1:
         ef:fa:55:b3:9e:8f:d2:6a:0d:fa:c6:74:b4:80:70:4c:24:7d:
         7a:24:16:3b:f1:e8:58:47:24:bf:7f:09:54:c0:4e:37:45:8e:
         5f:c6:6a:a9:8d:be:b4:93:9e:cf:6c:b0:3f:b3:14:ca:d4:8b:
         7b:46:40:66:ac:49:c6:75:8c:86:57:3a:0e:00:e0:e0:38:81:
         8b:c7:c3:40:fd:01:c1:24:8d:9a:3b:7e:30:db:0b:6e:4a:be:
         99:b7:d1:c3
-----BEGIN CERTIFICATE-----
MIID5jCCAs6gAwIBAgICEAgwDQYJKoZIhvcNAQELBQAwWjELMAkGA1UEBhMCRlIx
DDAKBgNVBAgTA0lERjEOMAwGA1UEBxMFUGFyaXMxGTAXBgNVBAoTEEZha2UgQ0Eg
Zm9yIFRlc3QxEjAQBgNVBAMTCU5vZGVPUENVQTAeFw0xODAxMzExNTA4MTFaFw0x
OTAxMzExNTA4MTFaMCgxEjAQBgNVBAoTCU5vZGVPUENVQTESMBAGA1UEAxMJTm9k
ZU9QQ1VBMIGfMA0GCSqGSIb3DQEBAQUAA4GNADCBiQKBgQDpBmTwalw1z+oNEA2P
qp7KpuHQt93lPcNTYOaMnBm3R01+0idriCW1a7K2WQfNEQUYUMOS3DpS55os/qdv
+UUyM9xQgU0d/sBGGJO8DZCmIPBHZJ6uc4ulkHvVqItoYbqSojBw/ldEA+ggpbwo
wrbegHlWo98kJTlVHy2/AAqMrQIDAQABo4IBajCCAWYwDAYDVR0TAQH/BAIwADAd
BgNVHQ4EFgQUbUGAuxqKd9K9033488TA4qRM0ucwgYwGA1UdIwSBhDCBgYAUZdMj
F0xahiLE2Jug6BCKjoJYyCuhXqRcMFoxCzAJBgNVBAYTAkZSMQwwCgYDVQQIEwNJ
REYxDjAMBgNVBAcTBVBhcmlzMRkwFwYDVQQKExBGYWtlIENBIGZvciBUZXN0MRIw
EAYDVQQDEwlOb2RlT1BDVUGCCQDLBavtYGUVUzBIBgNVHREEQTA/hid1cm46bG9j
YWxob3N0Ok5vZGVPUENVQS1EaXNjb3ZlcnlTZXJ2ZXKCCWxvY2FsaG9zdIIJbG9j
YWxob3N0MCwGCWCGSAGG+EIBDQQfFh1PcGVuU1NMIEdlbmVyYXRlZCBDZXJ0aWZp
Y2F0ZTAOBgNVHQ8BAf8EBAMCAvwwIAYDVR0lAQH/BBYwFAYIKwYBBQUHAwEGCCsG
AQUFBwMCMA0GCSqGSIb3DQEBCwUAA4IBAQApczZlsGwxOU1uFk03gtf8kewmisEQ
FueCuU9K7UUlM9cN/bgCQCBTBAKCktBZlWLL5YpDHcXyBdZ9a45j59kziPLR/w4P
FlRM9m8SlMyRNdqkEfoNmwyv3ZiSRTwilDt+/VNABrGH1bb6e4UW6R9RNL7708Wc
NfnNTEJtYyug46y1bUjODwg6xwXLjcTiWLbKSJuj7MIV1/ZIwkxSoLkGDbHv+lWz
no/Sag36xnS0gHBMJH16JBY78ehYRyS/fwlUwE43RY5fxmqpjb60k57PbLA/sxTK
1It7RkBmrEnGdYyGVzoOAODgOIGLx8NA/QHBJI2aO34w2wtuSr6Zt9HD
-----END CERTIFICATE-----
-----BEGIN CERTIFICATE-----
MIIEkjCCA3qgAwIBAgIJAMsFq+1gZRVTMA0GCSqGSIb3DQEBCwUAMFoxCzAJBgNV
BAYTAkZSMQwwCgYDVQQIEwNJREYxDjAMBgNVBAcTBVBhcmlzMRkwFwYDVQQKExBG
YWtlIENBIGZvciBUZXN0MRIwEAYDVQQDEwlOb2RlT1BDVUEwHhcNMTgwMjAxMTUw
ODEyWhcNMjgwMTMwMTUwODEyWjBaMQswCQYDVQQGEwJGUjEMMAoGA1UECBMDSURG
MQ4wDAYDVQQHEwVQYXJpczEZMBcGA1UEChMQRmFrZSBDQSBmb3IgVGVzdDESMBAG
A1UEAxMJTm9kZU9QQ1VBMIIBIjANBgkqhkiG9w0BAQEFAAOCAQ8AMIIBCgKCAQEA
wo8lbCUHCrpvSv8bPirLeFmdMwyNxo7ZEQ83NNJWtGKCjmc3oQQONyjXaMaXTEyR
YUcWNjH9WjLv2L6Z3mjaVmPLANlr09vuz8/QPPwMubTWYHT0Q1yfL+YIAw+2fCe+
DSV36UabAeFSB76vOcD+FRUvgT+P2nxhn2u40N4hPrNA8S8vqTTIIxK1+oMaITR4
MUP6EH3qpvHy8QQEP+aA6Z2Hodac/PGrwbq/Vr/w+FHvRJuWbiwA2/ITjycKhegB
JDL8XbhMqLxes4Viz3RuG/29mj7sfQxKEugUf5MmQXPkb3HcMF0/EvFBtY80Y3gp
BPGt827806NfjKQ0+lrRJQIDAQABo4IBWTCCAVUwHQYDVR0OBBYEFGXTIxdMWoYi
xNiboOgQio6CWMgrMIGMBgNVHSMEgYQwgYGAFGXTIxdMWoYixNiboOgQio6CWMgr
oV6kXDBaMQswCQYDVQQGEwJGUjEMMAoGA1UECBMDSURGMQ4wDAYDVQQHEwVQYXJp
czEZMBcGA1UEChMQRmFrZSBDQSBmb3IgVGVzdDESMBAGA1UEAxMJTm9kZU9QQ1VB
ggkAywWr7WBlFVMwDAYDVR0TBAUwAwEB/zAOBgNVHQ8BAf8EBAMCAQYwVwYJYIZI
AYb4QgENBEoWSENBIENlcnRpZmljYXRlIGdlbmVyYXRlZCBieSBOb2RlLU9QQ1VB
IENlcnRpZmljYXRlIHV0aWxpdHkgdXNpbmcgb3BlbnNzbDAuBgNVHR8EJzAlMCOg
IaAfhh1odHRwOi8vbG9jYWxob3N0Ojg5MDAvY3JsLnBlbTANBgkqhkiG9w0BAQsF
AAOCAQEAgTH/iugj21/VCEnmKeIshAJWizYvhBlfTrG1PNSOjXzFuGTuo76BiNM5
kITpi5STukPiqvsgMqzLmo2w1e97utYQxkA8V9NXLdLo/+sEbfMeh9FZIs/vITCF
nuPvle3wET5fXAZ/k3R0tB4CSgmMSDMFkqgs5nk41K0qOotd4G4OwUs92STFb4Vq
XRhkMBuhG2mElCjqCxFoGt6wShtUD5MNERoHMdWDuZzhitBdGpUiVHBvZhu89Rat
RNN/tCzO5GzeA99BkdlvUfE7mIZsBZWA9h7EzWm5K86+XyDt0TCRYvJRqzvn5nwt
zBj70c1TDb/fmz5cctRvvwzBqn10Lw==
-----END CERTIFICATE-----
