Certificate Request:
    Data:
        Version: 0 (0x0)
        Subject: C=FR, O=NodeOPCUA, CN=NodeOPCUA
        Subject Public Key Info:
            Public Key Algorithm: rsaEncryption
                Public-Key: (2048 bit)
                Modulus:
                    00:da:f1:01:15:2e:62:9c:4e:4f:66:c8:e5:a7:4a:
                    56:4d:63:17:fe:2d:5c:2a:42:cf:50:58:bf:bb:e8:
                    55:0a:f3:ca:e5:0c:13:e9:fd:f5:ba:87:b6:71:14:
                    08:40:b7:a7:80:e1:73:6d:da:67:74:da:e0:2d:6a:
                    d1:f1:45:9f:69:b3:18:65:cb:45:8f:c6:d8:2a:16:
                    f1:e4:ba:c9:e4:c7:6d:fa:53:0b:42:c0:58:ee:e3:
                    82:ac:0d:19:1c:1c:7b:65:c6:78:a8:a0:4d:28:7c:
                    c5:a6:cc:95:db:df:79:81:e7:6a:23:bf:e5:f5:d1:
                    1a:29:b2:d7:80:36:54:df:bf:6b:0a:86:2c:f2:3b:
                    e1:3e:cf:1b:4d:b2:9b:5a:e2:a7:fa:35:d7:de:c4:
                    4c:2a:a9:c9:8b:15:97:f1:a4:84:30:78:3f:72:a5:
                    48:24:67:8f:de:6d:a2:0c:54:25:3e:4f:6d:f0:12:
                    bc:34:3d:d9:a1:7f:b9:d6:cf:04:8f:76:c5:d3:0a:
                    2f:c8:a1:cc:db:0c:86:82:15:88:c0:32:88:de:66:
                    dd:c2:2d:fa:6d:fc:b1:63:71:ae:30:84:f6:6d:63:
                    6c:44:1a:19:e7:85:68:d4:dd:30:ab:0f:db:f0:bc:
                    ca:a8:29:9f:33:9d:f0:33:9c:a5:34:90:84:db:ae:
                    93:5f
                Exponent: 65537 (0x10001)
        Attributes:
        Requested Extensions:
            X509v3 Basic Constraints: 
                CA:FALSE
            X509v3 Key Usage: critical
                Certificate Sign, CRL Sign
            X509v3 Subject Alternative Name: 
                URI:undefined
    Signature Algorithm: sha256WithRSAEncryption
         49:e2:20:a9:0a:50:44:86:38:ea:32:4b:ff:4a:7f:50:12:9d:
         0c:d0:dd:26:5a:9c:d9:54:9a:c2:e1:bf:5a:b8:4a:87:d2:81:
         7e:d2:6f:0d:e0:7f:2e:61:3e:9e:00:4b:4d:08:f7:96:7e:20:
         f2:5a:0a:1d:ea:be:06:f4:d4:21:95:9d:87:18:59:48:bf:06:
         13:e0:1a:98:ff:cb:fb:4f:3c:43:92:32:9b:26:f4:ad:50:68:
         8c:9b:42:89:50:30:aa:b9:ff:af:1c:f7:5d:37:03:8e:c4:c0:
         57:72:9f:8d:f9:c2:c6:55:c4:d9:69:87:96:47:b0:74:00:a2:
         53:a6:ae:b1:54:9d:fd:f6:a4:06:94:14:38:98:2e:52:7f:db:
         1f:18:f9:91:a5:7f:0d:f7:56:e6:51:a1:f1:5d:d4:bf:85:a8:
         e7:17:7f:ea:b0:69:c1:fd:f5:c9:91:32:25:6d:65:41:fb:3b:
         6e:ae:55:aa:44:31:a0:c7:6f:0c:bc:62:ab:bc:56:7a:10:e1:
         4b:26:76:10:95:4e:3b:d7:48:b5:2d:1d:3c:bc:44:6d:7c:6a:
         84:5f:99:75:38:00:43:3a:20:de:07:29:2b:cf:d6:ae:e7:c0:
         5e:24:3d:45:f5:58:d6:54:7e:4b:4d:ba:01:29:04:f4:e2:05:
         99:60:10:de
-----BEGIN CERTIFICATE REQUEST-----
MIICvDCCAaQCAQAwNTELMAkGA1UEBhMCRlIxEjAQBgNVBAoMCU5vZGVPUENVQTES
MBAGA1UEAwwJTm9kZU9QQ1VBMIIBIjANBgkqhkiG9w0BAQEFAAOCAQ8AMIIBCgKC
AQEA2vEBFS5inE5PZsjlp0pWTWMX/i1cKkLPUFi/u+hVCvPK5QwT6f31uoe2cRQI
QLengOFzbdpndNrgLWrR8UWfabMYZctFj8bYKhbx5LrJ5Mdt+lMLQsBY7uOCrA0Z
HBx7ZcZ4qKBNKHzFpsyV2995gedqI7/l9dEaKbLXgDZU379rCoYs8jvhPs8bTbKb
WuKn+jXX3sRMKqnJixWX8aSEMHg/cqVIJGeP3m2iDFQlPk9t8BK8ND3ZoX+51s8E
j3bF0wovyKHM2wyGghWIwDKI3mbdwi36bfyxY3GuMIT2bWNsRBoZ54Vo1N0wqw/b
8LzKqCmfM53wM5ylNJCE266TXwIDAQABoEIwQAYJKoZIhvcNAQkOMTMwMTAJBgNV
HRMEAjAAMA4GA1UdDwEB/wQEAwIBBjAUBgNVHREEDTALhgl1bmRlZmluZWQwDQYJ
KoZIhvcNAQELBQADggEBAEniIKkKUESGOOoyS/9Kf1ASnQzQ3SZanNlUmsLhv1q4
SofSgX7Sbw3gfy5hPp4AS00I95Z+IPJaCh3qvgb01CGVnYcYWUi/BhPgGpj/y/tP
PEOSMpsm9K1QaIybQolQMKq5/68c9103A47EwFdyn435wsZVxNlph5ZHsHQAolOm
rrFUnf32pAaUFDiYLlJ/2x8Y+ZGlfw33VuZRofFd1L+FqOcXf+qwacH99cmRMiVt
ZUH7O26uVapEMaDHbwy8Yqu8VnoQ4UsmdhCVTjvXSLUtHTy8RG18aoRfmXU4AEM6
IN4HKSvP1q7nwF4kPUX1WNZUfktNugEpBPTiBZlgEN4=
-----END CERTIFICATE REQUEST-----
