Certificate Request:
    Data:
        Version: 0 (0x0)
        Subject: C=FR, O=NodeOPCUA, CN=NodeOPCUA
        Subject Public Key Info:
            Public Key Algorithm: rsaEncryption
                Public-Key: (1024 bit)
                Modulus:
                    00:b5:f1:7f:51:a2:5a:8d:4a:a5:cb:8c:0b:5c:c1:
                    26:80:99:95:1c:5d:ac:84:c9:35:4a:11:9d:1b:f0:
                    6c:96:ed:51:cf:3b:de:24:cf:55:ba:6a:e9:28:ae:
                    a9:98:eb:fc:f7:04:99:b6:72:52:68:7b:22:86:7c:
                    eb:e7:8d:64:34:51:ab:ed:b7:de:28:b2:d8:3e:73:
                    09:32:57:33:24:95:67:65:af:c2:a3:3b:c1:e1:03:
                    d9:9a:90:f6:37:12:84:e0:63:5c:0a:ba:80:bf:ed:
                    f7:aa:8d:c6:90:00:af:f2:56:20:51:77:95:a2:60:
                    5a:e0:84:c4:9d:ec:08:8e:b5
                Exponent: 65537 (0x10001)
        Attributes:
        Requested Extensions:
            X509v3 Basic Constraints: 
                CA:FALSE
            X509v3 Key Usage: critical
                Certificate Sign, CRL Sign
            X509v3 Subject Alternative Name: 
                URI:undefined
    Signature Algorithm: sha256WithRSAEncryption
         4a:cb:fb:97:7a:b9:7b:10:0c:66:26:9d:1e:53:1b:ef:57:b4:
         17:ee:92:86:1a:5c:2f:03:cd:ba:2d:e0:e1:ba:0b:96:ae:11:
         7d:3e:89:ef:39:2d:f9:20:59:66:aa:9b:0e:98:84:73:b3:6a:
         45:e4:80:4d:bb:c8:bd:a5:f4:64:e6:3d:21:66:0e:72:38:7c:
         0f:6d:fd:6c:27:f8:9b:08:9f:ba:56:97:3e:e0:6e:b0:da:1b:
         cf:5e:bf:36:90:21:81:d9:53:29:79:a7:44:e1:5c:36:97:bb:
         46:79:50:5e:65:68:15:d6:91:b3:0c:bb:db:6e:45:e8:c8:d1:
         21:89
-----BEGIN CERTIFICATE REQUEST-----
MIIBtzCCASACAQAwNTELMAkGA1UEBhMCRlIxEjAQBgNVBAoMCU5vZGVPUENVQTES
MBAGA1UEAwwJTm9kZU9QQ1VBMIGfMA0GCSqGSIb3DQEBAQUAA4GNADCBiQKBgQC1
8X9RolqNSqXLjAtcwSaAmZUcXayEyTVKEZ0b8GyW7VHPO94kz1W6aukorqmY6/z3
BJm2clJoeyKGfOvnjWQ0Uavtt94ostg+cwkyVzMklWdlr8KjO8HhA9makPY3EoTg
Y1wKuoC/7feqjcaQAK/yViBRd5WiYFrghMSd7AiOtQIDAQABoEIwQAYJKoZIhvcN
AQkOMTMwMTAJBgNVHRMEAjAAMA4GA1UdDwEB/wQEAwIBBjAUBgNVHREEDTALhgl1
bmRlZmluZWQwDQYJKoZIhvcNAQELBQADgYEASsv7l3q5exAMZiadHlMb71e0F+6S
hhpcLwPNui3g4boLlq4RfT6J7zkt+SBZZqqbDpiEc7NqReSATbvIvaX0ZOY9IWYO
cjh8D239bCf4mwifulaXPuBusNobz16/NpAhgdlTKXmnROFcNpe7RnlQXmVoFdaR
swy7225F6MjRIYk=
-----END CERTIFICATE REQUEST-----
