Certificate Request:
    Data:
        Version: 0 (0x0)
        Subject: C=FR, O=NodeOPCUA, CN=NodeOPCUA
        Subject Public Key Info:
            Public Key Algorithm: rsaEncryption
                Public-Key: (2048 bit)
                Modulus:
                    00:b1:e0:14:fd:c0:32:a1:ca:c4:36:e1:9e:38:7c:
                    a5:ad:3f:18:6e:ca:d2:80:8c:f7:73:de:a8:c2:43:
                    de:32:67:05:47:09:5c:08:9b:0e:86:4d:cc:fa:7d:
                    e1:09:ec:df:3f:14:d9:6a:12:10:e1:e9:b5:38:6b:
                    16:51:84:18:64:a3:fc:55:55:af:87:7e:1d:9a:b9:
                    67:20:63:de:c3:9a:9d:3f:f5:a2:d7:93:7c:90:9d:
                    31:c2:7c:1c:42:1e:c1:39:b7:58:2e:7e:33:48:f0:
                    08:fe:6e:88:51:15:8b:27:91:bd:6e:15:e0:69:ce:
                    59:10:75:a5:33:1a:91:c8:40:25:50:62:f3:ff:83:
                    5c:d2:09:a0:cb:40:47:dd:33:4c:f4:6d:ce:1b:c5:
                    c5:f8:97:93:57:98:67:c7:78:9a:44:84:a1:26:a4:
                    62:27:db:eb:59:21:6f:9f:db:d2:7d:0d:43:fa:1f:
                    e0:84:ec:d3:b5:e9:1f:4d:f8:21:67:48:6b:05:f5:
                    c4:df:d4:65:7b:ea:30:8e:b4:ad:64:5a:e3:5b:94:
                    cf:a2:6b:6e:5d:d1:16:26:de:59:0d:40:a1:28:68:
                    a6:b5:92:95:b8:8c:b7:df:f1:9a:7f:8c:b9:4a:15:
                    58:26:31:be:ab:f0:0b:d8:a4:df:c1:07:af:f1:91:
                    f4:01
                Exponent: 65537 (0x10001)
        Attributes:
        Requested Extensions:
            X509v3 Basic Constraints: 
                CA:FALSE
            X509v3 Key Usage: critical
                Certificate Sign, CRL Sign
            X509v3 Subject Alternative Name: 
                URI:undefined
    Signature Algorithm: sha256WithRSAEncryption
         ae:10:2c:f2:36:95:85:62:fc:15:f2:7b:46:56:eb:9d:59:d0:
         85:5b:ec:93:44:e5:e1:22:c2:1b:70:11:85:13:89:df:10:a2:
         b3:7d:01:85:94:87:76:f4:30:93:6d:90:a2:f6:62:4c:41:83:
         a9:2b:48:a1:28:79:f0:05:71:a0:fe:b5:73:f1:2e:ed:c5:c2:
         de:68:68:58:e3:6e:fb:0a:fb:86:43:f0:6d:51:ef:8a:68:27:
         57:f2:55:45:9f:a0:ce:38:27:30:c7:fb:44:a9:1e:3e:44:b2:
         55:d1:f7:cb:cf:89:db:d4:e1:3d:61:52:5d:53:b3:b3:da:e4:
         29:43:46:dd:8d:52:58:7d:5f:9f:c7:09:e1:88:b7:14:e5:e1:
         29:e6:2f:ad:4b:3a:2b:7e:88:5b:47:96:36:a0:71:8c:48:77:
         d1:d1:2f:1b:b6:23:46:5d:6f:d6:40:d1:84:65:b4:12:1e:41:
         f4:6c:63:31:81:2e:f0:93:36:1c:6c:57:e0:c3:43:ba:04:f9:
         95:0b:6d:b9:38:23:00:c6:ed:dd:4d:63:e3:8b:7d:1b:e2:61:
         c3:e3:bd:f4:1a:69:72:eb:df:b3:f4:46:42:37:36:92:3b:53:
         5b:36:23:c5:26:60:c5:45:f1:ae:77:4d:c5:78:7d:b1:f8:25:
         63:09:95:9f
-----BEGIN CERTIFICATE REQUEST-----
MIICvDCCAaQCAQAwNTELMAkGA1UEBhMCRlIxEjAQBgNVBAoMCU5vZGVPUENVQTES
MBAGA1UEAwwJTm9kZU9QQ1VBMIIBIjANBgkqhkiG9w0BAQEFAAOCAQ8AMIIBCgKC
AQEAseAU/cAyocrENuGeOHylrT8YbsrSgIz3c96owkPeMmcFRwlcCJsOhk3M+n3h
CezfPxTZahIQ4em1OGsWUYQYZKP8VVWvh34dmrlnIGPew5qdP/Wi15N8kJ0xwnwc
Qh7BObdYLn4zSPAI/m6IURWLJ5G9bhXgac5ZEHWlMxqRyEAlUGLz/4Nc0gmgy0BH
3TNM9G3OG8XF+JeTV5hnx3iaRIShJqRiJ9vrWSFvn9vSfQ1D+h/ghOzTtekfTfgh
Z0hrBfXE39Rle+owjrStZFrjW5TPomtuXdEWJt5ZDUChKGimtZKVuIy33/Gaf4y5
ShVYJjG+q/AL2KTfwQev8ZH0AQIDAQABoEIwQAYJKoZIhvcNAQkOMTMwMTAJBgNV
HRMEAjAAMA4GA1UdDwEB/wQEAwIBBjAUBgNVHREEDTALhgl1bmRlZmluZWQwDQYJ
KoZIhvcNAQELBQADggEBAK4QLPI2lYVi/BXye0ZW651Z0IVb7JNE5eEiwhtwEYUT
id8QorN9AYWUh3b0MJNtkKL2YkxBg6krSKEoefAFcaD+tXPxLu3Fwt5oaFjjbvsK
+4ZD8G1R74poJ1fyVUWfoM44JzDH+0SpHj5EslXR98vPidvU4T1hUl1Ts7Pa5ClD
Rt2NUlh9X5/HCeGItxTl4SnmL61LOit+iFtHljagcYxId9HRLxu2I0Zdb9ZA0YRl
tBIeQfRsYzGBLvCTNhxsV+DDQ7oE+ZULbbk4IwDG7d1NY+OLfRviYcPjvfQaaXLr
37P0RkI3NpI7U1s2I8UmYMVF8a53TcV4fbH4JWMJlZ8=
-----END CERTIFICATE REQUEST-----
