Certificate Request:
    Data:
        Version: 0 (0x0)
        Subject: C=FR, O=NodeOPCUA, CN=NodeOPCUA
        Subject Public Key Info:
            Public Key Algorithm: rsaEncryption
                Public-Key: (1024 bit)
                Modulus:
                    00:eb:af:b9:dd:36:cd:d1:59:f7:f9:ca:6a:57:04:
                    b5:77:5e:c8:b5:58:13:03:c8:46:d3:fd:ae:27:4d:
                    88:10:35:ac:4d:f2:52:2b:1e:db:20:ef:4c:40:30:
                    8c:91:dd:19:d1:d1:7d:dd:0a:a3:b9:3e:3b:4d:d4:
                    6e:a0:a9:74:ee:85:20:6b:74:7a:c6:40:ae:fa:7b:
                    a5:92:14:a3:12:34:50:d2:39:6d:49:87:e5:93:59:
                    ab:82:f4:0b:63:e2:8e:06:8a:64:7a:88:9d:6e:c8:
                    30:8c:5c:0d:7e:72:d0:8c:70:82:9d:6c:2b:08:29:
                    9c:80:28:1f:88:aa:8e:28:81
                Exponent: 65537 (0x10001)
        Attributes:
        Requested Extensions:
            X509v3 Basic Constraints: 
                CA:FALSE
            X509v3 Key Usage: critical
                Certificate Sign, CRL Sign
            X509v3 Subject Alternative Name: 
                URI:undefined
    Signature Algorithm: sha256WithRSAEncryption
         58:ff:4b:6b:95:29:14:11:2d:72:a3:1d:70:4b:e1:83:2d:e4:
         80:cd:8c:ab:ed:b0:71:3a:c8:e9:f8:b9:c3:36:bc:0e:a9:e6:
         e9:a4:f8:8a:2e:f6:3e:5c:48:e8:52:41:64:e3:32:af:e4:33:
         57:eb:cb:9c:41:a8:01:fc:76:13:53:f2:f1:b2:ec:b4:14:c4:
         6b:6b:43:99:16:32:bf:9c:06:67:33:bb:7f:9f:f5:3c:cf:9c:
         fd:19:40:5e:79:b6:e3:49:6d:f3:f7:b6:8f:9c:88:c7:58:fd:
         01:8c:04:15:3c:9d:d3:36:d9:6b:fc:a5:2e:7f:1d:a3:20:9a:
         2d:4a
-----BEGIN CERTIFICATE REQUEST-----
MIIBtzCCASACAQAwNTELMAkGA1UEBhMCRlIxEjAQBgNVBAoMCU5vZGVPUENVQTES
MBAGA1UEAwwJTm9kZU9QQ1VBMIGfMA0GCSqGSIb3DQEBAQUAA4GNADCBiQKBgQDr
r7ndNs3RWff5ympXBLV3Xsi1WBMDyEbT/a4nTYgQNaxN8lIrHtsg70xAMIyR3RnR
0X3dCqO5PjtN1G6gqXTuhSBrdHrGQK76e6WSFKMSNFDSOW1Jh+WTWauC9Atj4o4G
imR6iJ1uyDCMXA1+ctCMcIKdbCsIKZyAKB+Iqo4ogQIDAQABoEIwQAYJKoZIhvcN
AQkOMTMwMTAJBgNVHRMEAjAAMA4GA1UdDwEB/wQEAwIBBjAUBgNVHREEDTALhgl1
bmRlZmluZWQwDQYJKoZIhvcNAQELBQADgYEAWP9La5UpFBEtcqMdcEvhgy3kgM2M
q+2wcTrI6fi5wza8Dqnm6aT4ii72PlxI6FJBZOMyr+QzV+vLnEGoAfx2E1Py8bLs
tBTEa2tDmRYyv5wGZzO7f5/1PM+c/RlAXnm240lt8/e2j5yIx1j9AYwEFTyd0zbZ
a/ylLn8doyCaLUo=
-----END CERTIFICATE REQUEST-----
