Certificate:
    Data:
        Version: 3 (0x2)
        Serial Number: 4102 (0x1006)
    Signature Algorithm: sha256WithRSAEncryption
        Issuer: O=NodeOPCUA, CN=NodeOPCUA
        Validity
            Not Before: Jan 31 15:08:11 2018 GMT
            Not After : Jan 31 15:08:11 2019 GMT
        Subject: O=NodeOPCUA, CN=NodeOPCUA
        Subject Public Key Info:
            Public Key Algorithm: rsaEncryption
                Public-Key: (1024 bit)
                Modulus:
                    00:db:53:d6:15:f4:1a:04:28:0d:79:2a:af:f9:bc:
                    b3:ea:15:a5:79:1a:6b:20:07:f4:31:cd:a9:c6:45:
                    b7:df:30:49:45:25:5a:31:75:ed:25:52:73:16:3e:
                    0d:ab:4f:e3:78:22:aa:a3:25:99:5a:47:8e:f3:ba:
                    98:1d:44:76:8a:23:22:b3:d3:b5:f7:d8:04:3f:74:
                    4c:99:27:cb:e4:88:e6:a7:03:c9:94:f2:66:0a:d2:
                    c9:14:2e:46:27:58:09:53:32:a2:3e:a0:39:10:f1:
                    75:15:16:8a:b7:b1:8d:9c:a9:98:a1:c1:2e:10:fe:
                    f7:e8:ad:0b:bd:82:11:8f:4b
                Exponent: 65537 (0x10001)
        X509v3 extensions:
            X509v3 Basic Constraints: critical
                CA:FALSE
            X509v3 Subject Key Identifier: 
                30:02:9C:0C:F2:26:BC:87:C2:57:47:A2:CF:CF:2B:01:E1:C1:B1:63
            X509v3 Authority Key Identifier: 
                keyid:30:02:9C:0C:F2:26:BC:87:C2:57:47:A2:CF:CF:2B:01:E1:C1:B1:63
                DirName:/O=NodeOPCUA/CN=NodeOPCUA
                serial:10:06

            X509v3 Subject Alternative Name: 
                URI:urn:localhost:NodeOPCUA-Server, DNS:localhost, DNS:localhost
            Netscape Comment: 
                OpenSSL Generated Certificate
            X509v3 Key Usage: critical
                Digital Signature, Non Repudiation, Key Encipherment, Data Encipherment, Key Agreement, Certificate Sign
            X509v3 Extended Key Usage: critical
                TLS Web Server Authentication, TLS Web Client Authentication
    Signature Algorithm: sha256WithRSAEncryption
         90:f7:cf:7e:77:d1:70:32:bc:26:47:fc:14:bb:72:6c:26:79:
         ac:cd:73:1c:ae:ef:08:c8:74:d1:55:50:0a:81:4b:c0:97:ea:
         d8:6e:f2:96:16:b9:c7:aa:dd:8d:bc:3f:d7:a9:74:a0:f5:2d:
         46:73:f7:3f:7c:cd:df:17:d4:6f:b0:57:ff:fb:8c:62:69:a3:
         b8:75:01:98:88:3d:17:0b:92:b2:56:46:c8:fb:b9:a3:cc:6c:
         71:45:06:a2:19:d9:26:c8:3a:ec:ff:0e:24:a2:08:42:0b:f3:
         95:81:f3:2b:7e:f6:fd:f2:3d:41:68:2d:49:c4:46:bc:e5:27:
         ed:39
-----BEGIN CERTIFICATE-----
MIIC7jCCAlegAwIBAgICEAYwDQYJKoZIhvcNAQELBQAwKDESMBAGA1UEChMJTm9k
ZU9QQ1VBMRIwEAYDVQQDEwlOb2RlT1BDVUEwHhcNMTgwMTMxMTUwODExWhcNMTkw
MTMxMTUwODExWjAoMRIwEAYDVQQKEwlOb2RlT1BDVUExEjAQBgNVBAMTCU5vZGVP
UENVQTCBnzANBgkqhkiG9w0BAQEFAAOBjQAwgYkCgYEA21PWFfQaBCgNeSqv+byz
6hWleRprIAf0Mc2pxkW33zBJRSVaMXXtJVJzFj4Nq0/jeCKqoyWZWkeO87qYHUR2
iiMis9O199gEP3RMmSfL5IjmpwPJlPJmCtLJFC5GJ1gJUzKiPqA5EPF1FRaKt7GN
nKmYocEuEP736K0LvYIRj0sCAwEAAaOCASUwggEhMAwGA1UdEwEB/wQCMAAwHQYD
VR0OBBYEFDACnAzyJryHwldHos/PKwHhwbFjMFEGA1UdIwRKMEiAFDACnAzyJryH
wldHos/PKwHhwbFjoSykKjAoMRIwEAYDVQQKEwlOb2RlT1BDVUExEjAQBgNVBAMT
CU5vZGVPUENVQYICEAYwPwYDVR0RBDgwNoYedXJuOmxvY2FsaG9zdDpOb2RlT1BD
VUEtU2VydmVygglsb2NhbGhvc3SCCWxvY2FsaG9zdDAsBglghkgBhvhCAQ0EHxYd
T3BlblNTTCBHZW5lcmF0ZWQgQ2VydGlmaWNhdGUwDgYDVR0PAQH/BAQDAgL8MCAG
A1UdJQEB/wQWMBQGCCsGAQUFBwMBBggrBgEFBQcDAjANBgkqhkiG9w0BAQsFAAOB
gQCQ989+d9FwMrwmR/wUu3JsJnmszXMcru8IyHTRVVAKgUvAl+rYbvKWFrnHqt2N
vD/XqXSg9S1Gc/c/fM3fF9RvsFf/+4xiaaO4dQGYiD0XC5KyVkbI+7mjzGxxRQai
GdkmyDrs/w4koghCC/OVgfMrfvb98j1BaC1JxEa85SftOQ==
-----END CERTIFICATE-----
