Certificate:
    Data:
        Version: 3 (0x2)
        Serial Number: 4101 (0x1005)
    Signature Algorithm: sha256WithRSAEncryption
        Issuer: C=FR, ST=IDF, L=Paris, O=Fake CA for Test, CN=NodeOPCUA
        Validity
            Not Before: Jan 31 15:08:11 2018 GMT
            Not After : Jan 31 15:08:11 2019 GMT
        Subject: O=NodeOPCUA, CN=NodeOPCUA
        Subject Public Key Info:
            Public Key Algorithm: rsaEncryption
                Public-Key: (2048 bit)
                Modulus:
                    00:df:46:61:ce:e9:18:fc:1e:2d:df:d2:db:b1:78:
                    3d:a8:53:17:e2:0b:cb:1c:9a:e1:22:02:3f:14:97:
                    d8:b1:40:06:f7:24:d4:c9:f1:b9:46:e2:26:8a:c8:
                    3c:bc:b9:45:f0:60:b4:97:84:62:7a:d9:8b:15:c4:
                    5a:f0:92:cf:fd:ae:c4:51:a7:14:30:be:4d:16:49:
                    48:3c:e1:ae:0b:38:29:ce:08:ae:89:70:64:c5:df:
                    59:02:4c:6a:16:91:76:94:e3:8f:d9:5c:e6:0e:07:
                    8e:50:24:a2:1c:f9:57:ad:12:a1:e1:ae:c1:9e:73:
                    81:60:0b:cf:fe:c7:cc:85:51:20:62:ab:0e:c4:63:
                    2d:e8:fc:9e:5a:d8:e0:fa:08:a4:f8:a0:c7:1a:56:
                    ac:51:e3:e3:03:63:49:ac:e2:86:80:48:1c:e0:7c:
                    dd:22:dc:fa:5d:d5:b2:6f:10:c0:fe:b8:53:f4:c7:
                    0e:15:b2:10:d0:06:c5:e8:70:67:40:f4:de:3e:20:
                    dc:b1:45:ac:73:b8:cd:00:c7:67:9e:74:08:8a:3c:
                    54:7d:a6:7c:ad:d6:a3:9a:19:29:11:5f:33:7c:c3:
                    4d:42:82:3f:b8:aa:0c:02:a3:8a:fb:d1:25:a7:a6:
                    36:fa:41:9f:62:45:8a:42:f6:fd:31:fb:73:a3:c3:
                    2f:c7
                Exponent: 65537 (0x10001)
        X509v3 extensions:
            X509v3 Basic Constraints: critical
                CA:FALSE
            X509v3 Subject Key Identifier: 
                6C:4A:2D:42:F6:80:C1:E5:01:B4:39:5D:E8:EF:78:50:07:10:2B:D9
            X509v3 Authority Key Identifier: 
                keyid:65:D3:23:17:4C:5A:86:22:C4:D8:9B:A0:E8:10:8A:8E:82:58:C8:2B
                DirName:/C=FR/ST=IDF/L=Paris/O=Fake CA for Test/CN=NodeOPCUA
                serial:CB:05:AB:ED:60:65:15:53

            X509v3 Subject Alternative Name: 
                URI:urn:localhost:NodeOPCUA-Server, DNS:localhost, DNS:localhost
            Netscape Comment: 
                OpenSSL Generated Certificate
            X509v3 Key Usage: critical
                Digital Signature, Non Repudiation, Key Encipherment, Data Encipherment, Key Agreement, Certificate Sign
            X509v3 Extended Key Usage: critical
                TLS Web Server Authentication, TLS Web Client Authentication
    Signature Algorithm: sha256WithRSAEncryption
         aa:a8:ac:eb:98:23:32:7e:75:84:ea:3e:20:fb:fa:3d:de:af:
         02:5f:b8:f9:76:5e:f9:65:da:4e:69:16:fe:2b:65:66:1a:3c:
         9e:c7:6c:3e:f0:8e:aa:f2:6f:69:15:80:ee:d6:e0:b8:ff:a6:
         0d:4e:cb:6c:15:38:79:e8:93:3b:af:8e:4b:f4:22:45:f2:96:
         98:6d:17:c0:5e:ac:4d:15:0c:51:63:ad:5a:8a:45:81:d3:08:
         75:2e:e1:c3:7b:7d:4d:7b:9f:91:f3:d7:1e:aa:96:7b:b2:ee:
         3a:7b:c4:f4:31:b8:cb:ba:63:74:c4:e5:43:22:05:8e:b2:b1:
         e5:14:c8:2c:3d:25:da:73:df:92:71:38:b2:79:77:89:fc:70:
         f5:ac:24:ed:db:22:8d:b7:a5:35:03:0c:c5:71:25:34:20:b3:
         77:03:f4:c4:b2:4a:3b:fb:6e:20:d3:00:bc:a6:69:b4:95:07:
         26:c0:c8:d1:26:34:6f:8a:2a:97:bf:bd:f1:ac:8f:94:54:3e:
         e7:66:f3:df:f9:28:23:fb:a9:ba:47:28:12:c2:a4:93:3f:10:
         22:a9:bd:84:ff:6d:33:75:d4:30:1b:ef:69:0f:ff:e4:4b:a0:
         74:b7:03:70:32:2b:33:30:ac:9f:c3:22:aa:dc:00:7b:2d:fb:
         b6:d1:87:76
-----BEGIN CERTIFICATE-----
MIIEYTCCA0mgAwIBAgICEAUwDQYJKoZIhvcNAQELBQAwWjELMAkGA1UEBhMCRlIx
DDAKBgNVBAgTA0lERjEOMAwGA1UEBxMFUGFyaXMxGTAXBgNVBAoTEEZha2UgQ0Eg
Zm9yIFRlc3QxEjAQBgNVBAMTCU5vZGVPUENVQTAeFw0xODAxMzExNTA4MTFaFw0x
OTAxMzExNTA4MTFaMCgxEjAQBgNVBAoTCU5vZGVPUENVQTESMBAGA1UEAxMJTm9k
ZU9QQ1VBMIIBIjANBgkqhkiG9w0BAQEFAAOCAQ8AMIIBCgKCAQEA30ZhzukY/B4t
39LbsXg9qFMX4gvLHJrhIgI/FJfYsUAG9yTUyfG5RuImisg8vLlF8GC0l4RietmL
FcRa8JLP/a7EUacUML5NFklIPOGuCzgpzgiuiXBkxd9ZAkxqFpF2lOOP2VzmDgeO
UCSiHPlXrRKh4a7BnnOBYAvP/sfMhVEgYqsOxGMt6PyeWtjg+gik+KDHGlasUePj
A2NJrOKGgEgc4HzdItz6XdWybxDA/rhT9McOFbIQ0AbF6HBnQPTePiDcsUWsc7jN
AMdnnnQIijxUfaZ8rdajmhkpEV8zfMNNQoI/uKoMAqOK+9Elp6Y2+kGfYkWKQvb9
Mftzo8MvxwIDAQABo4IBYTCCAV0wDAYDVR0TAQH/BAIwADAdBgNVHQ4EFgQUbEot
QvaAweUBtDld6O94UAcQK9kwgYwGA1UdIwSBhDCBgYAUZdMjF0xahiLE2Jug6BCK
joJYyCuhXqRcMFoxCzAJBgNVBAYTAkZSMQwwCgYDVQQIEwNJREYxDjAMBgNVBAcT
BVBhcmlzMRkwFwYDVQQKExBGYWtlIENBIGZvciBUZXN0MRIwEAYDVQQDEwlOb2Rl
T1BDVUGCCQDLBavtYGUVUzA/BgNVHREEODA2hh51cm46bG9jYWxob3N0Ok5vZGVP
UENVQS1TZXJ2ZXKCCWxvY2FsaG9zdIIJbG9jYWxob3N0MCwGCWCGSAGG+EIBDQQf
Fh1PcGVuU1NMIEdlbmVyYXRlZCBDZXJ0aWZpY2F0ZTAOBgNVHQ8BAf8EBAMCAvww
IAYDVR0lAQH/BBYwFAYIKwYBBQUHAwEGCCsGAQUFBwMCMA0GCSqGSIb3DQEBCwUA
A4IBAQCqqKzrmCMyfnWE6j4g+/o93q8CX7j5dl75ZdpOaRb+K2VmGjyex2w+8I6q
8m9pFYDu1uC4/6YNTstsFTh56JM7r45L9CJF8paYbRfAXqxNFQxRY61aikWB0wh1
LuHDe31Ne5+R89ceqpZ7su46e8T0MbjLumN0xOVDIgWOsrHlFMgsPSXac9+ScTiy
eXeJ/HD1rCTt2yKNt6U1AwzFcSU0ILN3A/TEsko7+24g0wC8pmm0lQcmwMjRJjRv
iiqXv73xrI+UVD7nZvPf+Sgj+6m6RygSwqSTPxAiqb2E/20zddQwG+9pD//kS6B0
twNwMiszMKyfwyKq3AB7Lfu20Yd2
-----END CERTIFICATE-----
-----BEGIN CERTIFICATE-----
MIIEkjCCA3qgAwIBAgIJAMsFq+1gZRVTMA0GCSqGSIb3DQEBCwUAMFoxCzAJBgNV
BAYTAkZSMQwwCgYDVQQIEwNJREYxDjAMBgNVBAcTBVBhcmlzMRkwFwYDVQQKExBG
YWtlIENBIGZvciBUZXN0MRIwEAYDVQQDEwlOb2RlT1BDVUEwHhcNMTgwMjAxMTUw
ODEyWhcNMjgwMTMwMTUwODEyWjBaMQswCQYDVQQGEwJGUjEMMAoGA1UECBMDSURG
MQ4wDAYDVQQHEwVQYXJpczEZMBcGA1UEChMQRmFrZSBDQSBmb3IgVGVzdDESMBAG
A1UEAxMJTm9kZU9QQ1VBMIIBIjANBgkqhkiG9w0BAQEFAAOCAQ8AMIIBCgKCAQEA
wo8lbCUHCrpvSv8bPirLeFmdMwyNxo7ZEQ83NNJWtGKCjmc3oQQONyjXaMaXTEyR
YUcWNjH9WjLv2L6Z3mjaVmPLANlr09vuz8/QPPwMubTWYHT0Q1yfL+YIAw+2fCe+
DSV36UabAeFSB76vOcD+FRUvgT+P2nxhn2u40N4hPrNA8S8vqTTIIxK1+oMaITR4
MUP6EH3qpvHy8QQEP+aA6Z2Hodac/PGrwbq/Vr/w+FHvRJuWbiwA2/ITjycKhegB
JDL8XbhMqLxes4Viz3RuG/29mj7sfQxKEugUf5MmQXPkb3HcMF0/EvFBtY80Y3gp
BPGt827806NfjKQ0+lrRJQIDAQABo4IBWTCCAVUwHQYDVR0OBBYEFGXTIxdMWoYi
xNiboOgQio6CWMgrMIGMBgNVHSMEgYQwgYGAFGXTIxdMWoYixNiboOgQio6CWMgr
oV6kXDBaMQswCQYDVQQGEwJGUjEMMAoGA1UECBMDSURGMQ4wDAYDVQQHEwVQYXJp
czEZMBcGA1UEChMQRmFrZSBDQSBmb3IgVGVzdDESMBAGA1UEAxMJTm9kZU9QQ1VB
ggkAywWr7WBlFVMwDAYDVR0TBAUwAwEB/zAOBgNVHQ8BAf8EBAMCAQYwVwYJYIZI
AYb4QgENBEoWSENBIENlcnRpZmljYXRlIGdlbmVyYXRlZCBieSBOb2RlLU9QQ1VB
IENlcnRpZmljYXRlIHV0aWxpdHkgdXNpbmcgb3BlbnNzbDAuBgNVHR8EJzAlMCOg
IaAfhh1odHRwOi8vbG9jYWxob3N0Ojg5MDAvY3JsLnBlbTANBgkqhkiG9w0BAQsF
AAOCAQEAgTH/iugj21/VCEnmKeIshAJWizYvhBlfTrG1PNSOjXzFuGTuo76BiNM5
kITpi5STukPiqvsgMqzLmo2w1e97utYQxkA8V9NXLdLo/+sEbfMeh9FZIs/vITCF
nuPvle3wET5fXAZ/k3R0tB4CSgmMSDMFkqgs5nk41K0qOotd4G4OwUs92STFb4Vq
XRhkMBuhG2mElCjqCxFoGt6wShtUD5MNERoHMdWDuZzhitBdGpUiVHBvZhu89Rat
RNN/tCzO5GzeA99BkdlvUfE7mIZsBZWA9h7EzWm5K86+XyDt0TCRYvJRqzvn5nwt
zBj70c1TDb/fmz5cctRvvwzBqn10Lw==
-----END CERTIFICATE-----
