Certificate Request:
    Data:
        Version: 0 (0x0)
        Subject: C=FR, ST=IDF, L=Paris, O=Local NODE-OPCUA Certificate Authority, CN=NodeOPCUA-CA
        Subject Public Key Info:
            Public Key Algorithm: rsaEncryption
                Public-Key: (2048 bit)
                Modulus:
                    00:b5:fc:ab:e3:c1:03:e1:24:89:c1:ef:e5:9e:64:
                    cc:77:01:11:c2:b7:37:f8:e8:7c:e1:57:7f:5a:7a:
                    59:9b:be:0c:91:ab:9a:97:73:cd:a9:80:09:0d:fd:
                    ae:38:65:be:82:41:77:1d:02:93:48:10:20:ee:63:
                    58:b1:ae:a3:11:b5:d8:32:f4:a0:53:9a:fc:78:de:
                    f7:38:be:81:aa:52:ee:51:27:67:d3:21:42:8d:7a:
                    88:c6:d4:05:e5:30:00:25:dc:38:9f:d5:d0:c4:d2:
                    54:25:f0:bf:2d:b6:61:ca:22:06:91:74:dd:9b:80:
                    db:e9:0d:c5:f0:6b:d1:b3:70:ef:ff:64:cd:66:8c:
                    83:68:01:2a:c9:59:d7:f4:c0:38:6a:b7:9d:f2:dc:
                    c8:a7:ae:37:4f:8d:73:93:91:47:78:7c:ef:7c:5f:
                    70:bc:b9:1c:75:c3:3e:7a:7c:ba:59:46:56:93:f2:
                    49:bb:91:99:c8:02:02:b5:8f:33:ca:22:ec:e2:9b:
                    e6:4f:5e:86:ce:ff:50:27:38:84:95:df:09:83:c1:
                    83:53:ce:d8:03:c8:9d:da:57:1b:68:bc:ce:24:99:
                    ef:9c:a0:0b:8d:fa:77:dd:14:9c:e2:99:c3:33:8c:
                    0c:3c:88:28:93:ab:01:d8:b2:61:c6:c6:ba:9c:34:
                    1d:f5
                Exponent: 65537 (0x10001)
        Attributes:
        Requested Extensions:
            X509v3 Basic Constraints: critical
                CA:FALSE
            X509v3 Key Usage: 
                Digital Signature, Non Repudiation, Key Encipherment, Data Encipherment, Key Agreement
            X509v3 Subject Alternative Name: 
                URI:undefined
            Netscape Comment: 
                CA Generated by Node-OPCUA Certificate utility using openssl
    Signature Algorithm: sha256WithRSAEncryption
         a9:1e:01:c5:4f:9b:53:7d:05:ee:a5:60:a4:08:f3:a7:1d:e9:
         34:0c:35:b2:e0:f0:df:8a:c7:c9:36:7b:9d:92:b8:46:5c:73:
         81:ee:d2:13:ab:f6:d0:62:8b:f6:3e:ad:ef:e7:fa:40:9e:a7:
         83:89:11:35:60:a8:56:f1:a2:f4:12:7f:39:1a:1a:b1:bf:e2:
         ec:76:0f:6e:d0:11:b2:dc:d0:cd:3b:0f:dc:e2:19:bb:a8:e7:
         93:3e:31:76:11:ab:84:2f:7c:48:80:66:83:a9:d1:93:9b:f4:
         b4:c7:c0:98:96:40:32:d3:d7:ed:98:8f:c2:18:04:ab:50:4c:
         7d:91:7f:78:88:2e:76:93:bd:1e:77:bf:8c:05:d6:a5:8f:37:
         6d:74:15:4c:9a:f1:eb:11:87:b6:a1:21:e0:ac:2a:4d:c8:60:
         19:88:2d:99:c7:df:6c:4e:c5:04:99:09:c1:69:59:d5:c8:b1:
         a3:c7:39:22:48:ad:10:c3:79:6f:7a:49:7f:d2:8b:95:07:d2:
         32:96:ce:9d:28:5d:68:31:bd:6a:a5:fe:ce:11:cc:e5:04:39:
         49:40:ae:d0:35:96:7e:0a:30:42:f1:3d:5b:9a:cf:58:d4:77:
         cb:eb:15:f4:c2:d6:2b:1d:f4:94:e1:51:3e:35:54:c8:45:76:
         e1:df:72:09
-----BEGIN CERTIFICATE REQUEST-----
MIIDSjCCAjICAQAwczELMAkGA1UEBhMCRlIxDDAKBgNVBAgTA0lERjEOMAwGA1UE
BxMFUGFyaXMxLzAtBgNVBAoTJkxvY2FsIE5PREUtT1BDVUEgQ2VydGlmaWNhdGUg
QXV0aG9yaXR5MRUwEwYDVQQDEwxOb2RlT1BDVUEtQ0EwggEiMA0GCSqGSIb3DQEB
AQUAA4IBDwAwggEKAoIBAQC1/KvjwQPhJInB7+WeZMx3ARHCtzf46HzhV39aelmb
vgyRq5qXc82pgAkN/a44Zb6CQXcdApNIECDuY1ixrqMRtdgy9KBTmvx43vc4voGq
Uu5RJ2fTIUKNeojG1AXlMAAl3Dif1dDE0lQl8L8ttmHKIgaRdN2bgNvpDcXwa9Gz
cO//ZM1mjINoASrJWdf0wDhqt53y3MinrjdPjXOTkUd4fO98X3C8uRx1wz56fLpZ
RlaT8km7kZnIAgK1jzPKIuzim+ZPXobO/1AnOISV3wmDwYNTztgDyJ3aVxtovM4k
me+coAuN+nfdFJzimcMzjAw8iCiTqwHYsmHGxrqcNB31AgMBAAGggZEwgY4GCSqG
SIb3DQEJDjGBgDB+MAwGA1UdEwEB/wQCMAAwCwYDVR0PBAQDAgP4MBQGA1UdEQQN
MAuGCXVuZGVmaW5lZDBLBglghkgBhvhCAQ0EPhY8Q0EgR2VuZXJhdGVkIGJ5IE5v
ZGUtT1BDVUEgQ2VydGlmaWNhdGUgdXRpbGl0eSB1c2luZyBvcGVuc3NsMA0GCSqG
SIb3DQEBCwUAA4IBAQCpHgHFT5tTfQXupWCkCPOnHek0DDWy4PDfisfJNnudkrhG
XHOB7tITq/bQYov2Pq3v5/pAnqeDiRE1YKhW8aL0En85Ghqxv+Lsdg9u0BGy3NDN
Ow/c4hm7qOeTPjF2EauEL3xIgGaDqdGTm/S0x8CYlkAy09ftmI/CGASrUEx9kX94
iC52k70ed7+MBdaljzdtdBVMmvHrEYe2oSHgrCpNyGAZiC2Zx99sTsUEmQnBaVnV
yLGjxzkiSK0Qw3lvekl/0ouVB9Iyls6dKF1oMb1qpf7OEczlBDlJQK7QNZZ+CjBC
8T1bms9Y1HfL6xX0wtYrHfSU4VE+NVTIRXbh33IJ
-----END CERTIFICATE REQUEST-----
