Certificate:
    Data:
        Version: 3 (0x2)
        Serial Number: 4102 (0x1006)
        Signature Algorithm: sha256WithRSAEncryption
        Issuer: C=FR, ST=IDF, L=Paris, O=Local NODE-OPCUA Certificate Authority, CN=NodeOPCUA-CA
        Validity
            Not Before: Jun 17 10:41:15 2019 GMT
            Not After : Jun 16 10:41:15 2020 GMT
        Subject: C=FR, O=NodeOPCUA, CN=NodeOPCUA
        Subject Public Key Info:
            Public Key Algorithm: rsaEncryption
                RSA Public-Key: (4096 bit)
                Modulus:
                    00:93:75:7e:aa:5f:48:cd:c8:81:f2:9f:c8:f7:1b:
                    c1:d2:58:62:e4:c7:7e:8f:c1:ed:79:77:f2:93:ec:
                    de:e6:87:3a:5a:57:be:6d:f3:4a:04:3b:52:f7:d4:
                    92:bf:ec:a2:5e:94:93:7f:c3:77:5d:23:27:0b:0d:
                    a1:09:a6:56:d6:db:94:2d:fd:2f:61:5d:81:a0:d4:
                    a0:ac:b5:6a:69:85:2d:5a:87:30:aa:5a:94:65:23:
                    55:44:6f:46:28:f9:ae:99:d2:a4:27:90:f0:23:63:
                    77:6f:8c:51:cc:1f:59:3a:ac:7d:9e:fb:6c:17:5b:
                    77:bf:a6:8e:33:f2:ba:f8:4e:c5:2c:33:4c:19:32:
                    bb:50:5a:da:c6:13:91:c7:e0:78:f6:c5:c1:89:53:
                    9b:c4:8f:9b:70:6f:04:02:e3:14:8b:55:b5:32:e8:
                    ca:6a:72:19:0b:bc:25:00:0d:3b:5e:43:6a:05:d8:
                    03:6d:f8:02:07:f5:10:54:f4:6d:2c:9b:d2:d8:90:
                    b9:ca:22:70:bc:78:0a:5f:47:71:23:b9:74:99:76:
                    34:79:20:57:8c:bc:f4:69:35:2b:14:45:5d:9c:9f:
                    5c:2a:f3:99:38:d1:23:58:b2:c9:85:68:a5:68:58:
                    1a:76:2f:51:46:a0:6d:c2:a2:d6:27:e7:aa:ea:b3:
                    2b:ec:5f:2b:6f:6d:4b:7a:3e:7b:3e:40:7b:bb:eb:
                    6c:1b:ef:22:7d:82:e3:9e:5b:2a:d4:32:a3:d6:b9:
                    91:33:6a:d7:ce:2a:4d:e9:4d:16:e3:b7:fd:50:1f:
                    a6:61:d9:da:97:51:a3:88:82:8c:2a:44:12:38:4b:
                    da:b1:48:1a:4a:82:6e:c2:9d:63:30:d9:c9:9a:54:
                    35:87:8b:8f:21:fb:b7:8d:a0:3f:a4:21:32:32:b3:
                    7c:d0:5a:c8:23:70:f2:de:8b:ad:b8:b3:fc:d8:9b:
                    7d:6a:34:54:b4:c0:d9:fa:61:0e:69:82:a4:ca:d2:
                    77:00:70:72:e3:27:32:27:c8:45:43:03:9e:a4:b5:
                    ab:2d:e3:57:14:8b:40:3f:76:92:7e:c6:02:69:d1:
                    5f:31:74:5f:c2:70:98:bf:1e:9c:f0:ac:0a:dc:0d:
                    ab:04:39:65:28:95:6a:5c:2a:d5:e3:f7:31:b7:cf:
                    46:42:02:2d:28:ac:89:dc:20:92:e9:92:41:d1:eb:
                    9e:dd:d4:e9:e1:48:ac:d2:1e:75:74:78:38:f5:fd:
                    37:97:74:21:f4:0e:95:0a:58:8d:6c:0e:2e:67:14:
                    05:c2:71:b0:09:62:47:a3:b3:5e:55:ea:af:fe:d3:
                    5b:3b:cf:87:8d:46:7f:b9:62:85:d6:45:93:a4:d9:
                    8b:6f:09
                Exponent: 65537 (0x10001)
        X509v3 extensions:
            X509v3 Basic Constraints: critical
                CA:FALSE
            X509v3 Subject Key Identifier: 
                EB:8E:E0:D8:C1:48:47:03:FD:29:E2:60:51:BF:80:73:E9:15:33:1C
            X509v3 Authority Key Identifier: 
                keyid:D7:8F:AB:11:B3:E7:CD:78:07:26:4A:8F:9F:A2:00:99:BA:AF:59:6F
                DirName:/C=FR/ST=IDF/L=Paris/O=Local NODE-OPCUA Certificate Authority/CN=NodeOPCUA-CA
                serial:69:A1:67:A0:C7:79:70:A6:3C:F4:0A:0A:41:F6:1B:84:BE:4A:AC:09

            X509v3 Subject Alternative Name: 
                URI:urn:pietro-HP:NodeOPCUA-Client, DNS:localhost, DNS:pietro-HP
            Netscape Comment: 
                OpenSSL Generated Certificate
            X509v3 Key Usage: critical
                Digital Signature, Non Repudiation, Key Encipherment, Data Encipherment, Key Agreement, Certificate Sign
            X509v3 Extended Key Usage: critical
                TLS Web Server Authentication, TLS Web Client Authentication
    Signature Algorithm: sha256WithRSAEncryption
         6c:4d:cc:06:1b:2b:de:4b:77:96:04:77:7b:f2:e1:65:ae:4f:
         19:b0:17:f8:49:2b:de:92:fa:d0:0d:3c:a1:0b:a1:d8:17:3c:
         eb:5a:ff:5f:e7:c5:7b:68:f4:e8:35:e6:5f:da:9c:21:55:51:
         68:83:8f:6e:c1:86:37:b5:e5:bb:16:cd:3a:7b:04:fe:2f:af:
         b6:f1:f4:97:f2:e5:ae:e4:b0:19:ea:dd:e3:d5:c5:32:07:a0:
         4d:2e:44:73:61:c3:ae:ae:98:ad:a6:78:09:31:24:9b:23:c8:
         b5:5b:7e:c1:70:d5:c9:c8:c4:7f:40:4c:75:72:74:cf:e5:80:
         3a:4e:71:3d:12:cd:10:db:c7:3d:62:a1:c8:2c:9f:ce:22:5c:
         63:7f:81:f2:c9:37:04:bd:29:58:78:65:b8:cb:78:89:4f:76:
         01:70:dd:ed:29:88:cf:0a:2a:34:a6:59:2e:05:c7:e0:aa:4c:
         b1:26:db:80:0e:d8:7f:a3:0f:d8:42:58:80:99:80:77:4e:68:
         90:36:25:d6:ea:41:eb:74:c5:c6:2a:42:01:a1:77:70:5a:fc:
         7a:b6:46:e2:39:46:74:fd:17:dd:1e:f0:1b:8a:e5:53:22:19:
         df:01:73:92:42:75:35:b7:ca:ee:09:0b:35:a6:cb:25:a0:41:
         a6:6a:95:c5
-----BEGIN CERTIFICATE-----
MIIFqzCCBJOgAwIBAgICEAYwDQYJKoZIhvcNAQELBQAwczELMAkGA1UEBhMCRlIx
DDAKBgNVBAgTA0lERjEOMAwGA1UEBxMFUGFyaXMxLzAtBgNVBAoTJkxvY2FsIE5P
REUtT1BDVUEgQ2VydGlmaWNhdGUgQXV0aG9yaXR5MRUwEwYDVQQDEwxOb2RlT1BD
VUEtQ0EwHhcNMTkwNjE3MTA0MTE1WhcNMjAwNjE2MTA0MTE1WjA1MQswCQYDVQQG
EwJGUjESMBAGA1UECgwJTm9kZU9QQ1VBMRIwEAYDVQQDDAlOb2RlT1BDVUEwggIi
MA0GCSqGSIb3DQEBAQUAA4ICDwAwggIKAoICAQCTdX6qX0jNyIHyn8j3G8HSWGLk
x36Pwe15d/KT7N7mhzpaV75t80oEO1L31JK/7KJelJN/w3ddIycLDaEJplbW25Qt
/S9hXYGg1KCstWpphS1ahzCqWpRlI1VEb0Yo+a6Z0qQnkPAjY3dvjFHMH1k6rH2e
+2wXW3e/po4z8rr4TsUsM0wZMrtQWtrGE5HH4Hj2xcGJU5vEj5twbwQC4xSLVbUy
6MpqchkLvCUADTteQ2oF2ANt+AIH9RBU9G0sm9LYkLnKInC8eApfR3EjuXSZdjR5
IFeMvPRpNSsURV2cn1wq85k40SNYssmFaKVoWBp2L1FGoG3CotYn56rqsyvsXytv
bUt6Pns+QHu762wb7yJ9guOeWyrUMqPWuZEzatfOKk3pTRbjt/1QH6Zh2dqXUaOI
gowqRBI4S9qxSBpKgm7CnWMw2cmaVDWHi48h+7eNoD+kITIys3zQWsgjcPLei624
s/zYm31qNFS0wNn6YQ5pgqTK0ncAcHLjJzInyEVDA56ktast41cUi0A/dpJ+xgJp
0V8xdF/CcJi/HpzwrArcDasEOWUolWpcKtXj9zG3z0ZCAi0orIncIJLpkkHR657d
1OnhSKzSHnV0eDj1/TeXdCH0DpUKWI1sDi5nFAXCcbAJYkejs15V6q/+01s7z4eN
Rn+5YoXWRZOk2YtvCQIDAQABo4IBhTCCAYEwDAYDVR0TAQH/BAIwADAdBgNVHQ4E
FgQU647g2MFIRwP9KeJgUb+Ac+kVMxwwgbAGA1UdIwSBqDCBpYAU14+rEbPnzXgH
JkqPn6IAmbqvWW+hd6R1MHMxCzAJBgNVBAYTAkZSMQwwCgYDVQQIEwNJREYxDjAM
BgNVBAcTBVBhcmlzMS8wLQYDVQQKEyZMb2NhbCBOT0RFLU9QQ1VBIENlcnRpZmlj
YXRlIEF1dGhvcml0eTEVMBMGA1UEAxMMTm9kZU9QQ1VBLUNBghRpoWegx3lwpjz0
CgpB9huEvkqsCTA/BgNVHREEODA2hh51cm46cGlldHJvLUhQOk5vZGVPUENVQS1D
bGllbnSCCWxvY2FsaG9zdIIJcGlldHJvLUhQMCwGCWCGSAGG+EIBDQQfFh1PcGVu
U1NMIEdlbmVyYXRlZCBDZXJ0aWZpY2F0ZTAOBgNVHQ8BAf8EBAMCAvwwIAYDVR0l
AQH/BBYwFAYIKwYBBQUHAwEGCCsGAQUFBwMCMA0GCSqGSIb3DQEBCwUAA4IBAQBs
TcwGGyveS3eWBHd78uFlrk8ZsBf4SSvekvrQDTyhC6HYFzzrWv9f58V7aPToNeZf
2pwhVVFog49uwYY3teW7Fs06ewT+L6+28fSX8uWu5LAZ6t3j1cUyB6BNLkRzYcOu
rpitpngJMSSbI8i1W37BcNXJyMR/QEx1cnTP5YA6TnE9Es0Q28c9YqHILJ/OIlxj
f4HyyTcEvSlYeGW4y3iJT3YBcN3tKYjPCio0plkuBcfgqkyxJtuADth/ow/YQliA
mYB3TmiQNiXW6kHrdMXGKkIBoXdwWvx6tkbiOUZ0/RfdHvAbiuVTIhnfAXOSQnU1
t8ruCQs1pssloEGmapXF
-----END CERTIFICATE-----
Certificate:
    Data:
        Version: 1 (0x0)
        Serial Number:
            69:a1:67:a0:c7:79:70:a6:3c:f4:0a:0a:41:f6:1b:84:be:4a:ac:09
        Signature Algorithm: NULL
        Issuer: C = FR, ST = IDF, L = Paris, O = Local NODE-OPCUA Certificate Authority, CN = NodeOPCUA-CA
        Validity
            Not Before: Jun 18 10:41:15 2019 GMT
            Not After : Jun 15 10:41:15 2029 GMT
        Subject: C = FR, ST = IDF, L = Paris, O = Local NODE-OPCUA Certificate Authority, CN = NodeOPCUA-CA
        Subject Public Key Info:
            Public Key Algorithm: rsaEncryption
                RSA Public-Key: (2048 bit)
                Modulus:
                    00:a7:0e:67:e3:24:16:35:61:bc:f1:85:a5:de:46:
                    ae:c5:79:1d:d9:5c:ab:1b:44:c7:3a:32:fd:f2:d0:
                    99:46:a4:cd:7b:55:ee:d1:61:e0:20:ce:cb:f3:d3:
                    6f:a1:46:49:e1:85:9c:97:fa:c7:de:39:37:89:36:
                    a8:c6:0f:fd:c8:16:ca:9c:67:a3:7c:a6:7c:bd:e7:
                    06:08:77:7b:f4:5b:ec:44:41:2b:f7:c2:c5:e2:6a:
                    00:a3:12:55:47:e7:c8:75:85:bd:1c:c5:af:fe:94:
                    35:96:bd:e5:62:f8:0b:ef:db:e7:14:8f:13:84:85:
                    a0:2d:de:43:d4:35:25:ea:a0:ca:cb:5d:9a:44:cd:
                    fd:89:c2:6a:28:ed:f0:79:e3:1d:ae:63:b3:f8:5a:
                    60:30:12:44:34:00:29:ac:7e:ab:b2:b2:79:ec:f9:
                    dd:fe:40:9f:ed:e3:12:f9:fb:df:0c:c4:8a:e8:6c:
                    64:46:93:79:fd:ba:e4:4b:0c:79:bc:23:e8:77:34:
                    f7:cf:80:69:18:65:13:16:00:19:79:72:d7:f4:ab:
                    b1:f7:27:11:ef:63:22:1c:53:ec:75:8c:1c:a7:09:
                    1d:48:fe:a3:68:99:2e:6c:8c:e8:89:36:2a:46:05:
                    a5:b2:fc:34:88:70:fe:41:5c:cb:7a:bc:ba:ab:0b:
                    60:6f
                Exponent: 65537 (0x10001)
    Signature Algorithm: NULL
-----BEGIN CERTIFICATE-----
MIIE8zCCA9ugAwIBAgIUaaFnoMd5cKY89AoKQfYbhL5KrAkwDQYJKoZIhvcNAQEL
BQAwczELMAkGA1UEBhMCRlIxDDAKBgNVBAgTA0lERjEOMAwGA1UEBxMFUGFyaXMx
LzAtBgNVBAoTJkxvY2FsIE5PREUtT1BDVUEgQ2VydGlmaWNhdGUgQXV0aG9yaXR5
MRUwEwYDVQQDEwxOb2RlT1BDVUEtQ0EwHhcNMTkwNjE4MTA0MTE1WhcNMjkwNjE1
MTA0MTE1WjBzMQswCQYDVQQGEwJGUjEMMAoGA1UECBMDSURGMQ4wDAYDVQQHEwVQ
YXJpczEvMC0GA1UEChMmTG9jYWwgTk9ERS1PUENVQSBDZXJ0aWZpY2F0ZSBBdXRo
b3JpdHkxFTATBgNVBAMTDE5vZGVPUENVQS1DQTCCASIwDQYJKoZIhvcNAQEBBQAD
ggEPADCCAQoCggEBAKcOZ+MkFjVhvPGFpd5GrsV5HdlcqxtExzoy/fLQmUakzXtV
7tFh4CDOy/PTb6FGSeGFnJf6x945N4k2qMYP/cgWypxno3ymfL3nBgh3e/Rb7ERB
K/fCxeJqAKMSVUfnyHWFvRzFr/6UNZa95WL4C+/b5xSPE4SFoC3eQ9Q1Jeqgystd
mkTN/YnCaijt8HnjHa5js/haYDASRDQAKax+q7Kyeez53f5An+3jEvn73wzEiuhs
ZEaTef265EsMebwj6Hc098+AaRhlExYAGXly1/SrsfcnEe9jIhxT7HWMHKcJHUj+
o2iZLmyM6Ik2KkYFpbL8NIhw/kFcy3q8uqsLYG8CAwEAAaOCAX0wggF5MB0GA1Ud
DgQWBBTXj6sRs+fNeAcmSo+fogCZuq9ZbzCBsAYDVR0jBIGoMIGlgBTXj6sRs+fN
eAcmSo+fogCZuq9Zb6F3pHUwczELMAkGA1UEBhMCRlIxDDAKBgNVBAgTA0lERjEO
MAwGA1UEBxMFUGFyaXMxLzAtBgNVBAoTJkxvY2FsIE5PREUtT1BDVUEgQ2VydGlm
aWNhdGUgQXV0aG9yaXR5MRUwEwYDVQQDEwxOb2RlT1BDVUEtQ0GCFGmhZ6DHeXCm
PPQKCkH2G4S+SqwJMAwGA1UdEwQFMAMBAf8wDgYDVR0PAQH/BAQDAgEGMFcGCWCG
SAGG+EIBDQRKFkhDQSBDZXJ0aWZpY2F0ZSBnZW5lcmF0ZWQgYnkgTm9kZS1PUENV
QSBDZXJ0aWZpY2F0ZSB1dGlsaXR5IHVzaW5nIG9wZW5zc2wwLgYDVR0fBCcwJTAj
oCGgH4YdaHR0cDovL2xvY2FsaG9zdDo4OTAwL2NybC5wZW0wDQYJKoZIhvcNAQEL
BQADggEBAB5RlV9E1txW4bZm7rT13HzFq2Dgyd8PFDif2CVLWcvjrggTcxFvyhRh
29rHlSYAlBiEU5jFT73V00P27t63grYzT8lzD8xl8K0YcTO2lKp+scS8UV3hsjDN
zr6OunCOxzVeAUrLpLsCJvOBnyYcV2Fy0eVExVSz1whM5hWJrk8qw5MFx9LTDtjI
3UEVNtqMc/tFpuNgdlt77i+GInbqRWcBz9yFwb23NOMIwrTwduYHDGRaedHcLKlr
9IBSoGQcBhNFAS+vWdMlyE6hdgujEaVoylVZTMGMhHmEYIkbVUAAvL1bqQjhOACh
TTK0Nnn8aswDDcCu5WV7naMhwXaBcYg=
-----END CERTIFICATE-----
