Certificate:
    Data:
        Version: 3 (0x2)
        Serial Number: 4097 (0x1001)
    Signature Algorithm: sha256WithRSAEncryption
        Issuer: C=FR, ST=IDF, L=Paris, O=Fake CA for Test, CN=NodeOPCUA
        Validity
            Not Before: Jan 31 15:08:11 2018 GMT
            Not After : Jan 31 15:08:11 2019 GMT
        Subject: O=NodeOPCUA, CN=NodeOPCUA
        Subject Public Key Info:
            Public Key Algorithm: rsaEncryption
                Public-Key: (2048 bit)
                Modulus:
                    00:d6:ea:45:81:0a:c9:39:31:1f:d8:cf:36:ba:0d:
                    d1:53:bb:6e:3a:8c:cc:61:e6:a5:54:33:2b:60:ff:
                    b5:c6:ba:bc:67:e8:80:51:71:51:e2:76:d8:c0:bd:
                    2f:5d:cd:70:88:88:06:3b:a5:8d:4a:0f:01:e6:e0:
                    fe:66:48:02:7d:0d:a3:53:63:1d:7e:e1:2e:0c:22:
                    4e:1c:27:bf:0b:33:75:fd:50:72:60:73:fe:ab:75:
                    b3:4a:3f:4a:30:1f:24:a9:79:22:25:57:75:5f:30:
                    b6:a7:9b:1d:0b:83:42:97:fc:48:47:75:67:0a:7d:
                    9b:81:09:33:1a:72:08:e3:d7:f4:58:cc:d8:c9:3b:
                    96:7f:f4:06:61:f9:f1:fc:dd:88:71:3f:5e:88:2a:
                    00:59:b5:d2:58:ac:ad:5f:dc:49:0b:ff:09:42:38:
                    1e:24:47:5d:7c:37:6c:99:a5:27:27:90:41:bd:3c:
                    4a:69:85:7a:f1:3a:47:0e:6d:8c:c2:34:7e:68:da:
                    c7:1a:73:fc:ac:24:ec:b4:75:90:d5:8f:40:71:7b:
                    0e:b2:11:a0:58:9b:c2:6b:29:05:e6:2a:cf:39:a5:
                    57:d7:d5:a7:7c:a6:98:30:6a:63:dc:43:c1:7a:94:
                    a5:3f:7b:eb:f2:fe:e3:15:ef:1e:cf:1c:99:53:6b:
                    6f:51
                Exponent: 65537 (0x10001)
        X509v3 extensions:
            X509v3 Basic Constraints: critical
                CA:FALSE
            X509v3 Subject Key Identifier: 
                B4:04:0E:0B:A8:D7:C7:54:DF:26:11:FD:EA:38:2C:B0:9B:8A:D3:DC
            X509v3 Authority Key Identifier: 
                keyid:65:D3:23:17:4C:5A:86:22:C4:D8:9B:A0:E8:10:8A:8E:82:58:C8:2B
                DirName:/C=FR/ST=IDF/L=Paris/O=Fake CA for Test/CN=NodeOPCUA
                serial:CB:05:AB:ED:60:65:15:53

            X509v3 Subject Alternative Name: 
                URI:urn:localhost:NodeOPCUA-Client, DNS:localhost, DNS:localhost
            Netscape Comment: 
                OpenSSL Generated Certificate
            X509v3 Key Usage: critical
                Digital Signature, Non Repudiation, Key Encipherment, Data Encipherment, Key Agreement, Certificate Sign
            X509v3 Extended Key Usage: critical
                TLS Web Server Authentication, TLS Web Client Authentication
    Signature Algorithm: sha256WithRSAEncryption
         8b:16:39:a1:d0:8d:3b:cf:e5:34:1d:50:b2:7b:16:d8:30:93:
         09:97:b6:03:68:57:c6:a7:3c:94:c0:93:75:89:8c:c9:ce:d5:
         6b:3d:2e:0b:c7:5c:97:7a:5c:9f:3b:e9:d1:ce:ef:17:29:8d:
         da:58:70:f4:77:35:e9:8f:ed:3d:0c:97:9a:4b:b9:50:99:0d:
         e5:79:0c:6b:7b:65:e4:8c:17:a3:80:5a:38:f8:90:d4:7d:9a:
         38:93:05:77:a5:0e:4f:68:5f:1a:83:8c:7e:19:e7:08:26:95:
         73:71:33:f1:eb:e1:4a:b0:f0:e8:f0:2c:d6:43:7a:01:a0:33:
         df:d3:aa:32:40:fe:cd:17:21:6e:6d:e8:f9:53:63:fc:22:76:
         05:7a:f2:f5:80:3d:d4:39:e9:49:d5:d2:f5:23:dc:42:13:d4:
         58:09:27:32:64:4d:2b:99:e3:19:51:57:47:bf:9f:e1:32:ee:
         39:e4:4c:7c:80:f1:ef:c7:e9:f3:4f:3a:38:a6:86:fb:98:de:
         ef:a1:0b:43:2c:83:b6:d9:33:86:03:e2:95:72:f9:19:57:ae:
         ab:cf:13:21:c4:2c:18:0d:d0:6d:cf:57:d4:74:9c:23:8c:9e:
         aa:a2:c4:de:8c:03:03:2a:77:c7:bf:74:b7:f8:b2:f8:1a:8f:
         00:d8:70:45
-----BEGIN CERTIFICATE-----
MIIEYTCCA0mgAwIBAgICEAEwDQYJKoZIhvcNAQELBQAwWjELMAkGA1UEBhMCRlIx
DDAKBgNVBAgTA0lERjEOMAwGA1UEBxMFUGFyaXMxGTAXBgNVBAoTEEZha2UgQ0Eg
Zm9yIFRlc3QxEjAQBgNVBAMTCU5vZGVPUENVQTAeFw0xODAxMzExNTA4MTFaFw0x
OTAxMzExNTA4MTFaMCgxEjAQBgNVBAoTCU5vZGVPUENVQTESMBAGA1UEAxMJTm9k
ZU9QQ1VBMIIBIjANBgkqhkiG9w0BAQEFAAOCAQ8AMIIBCgKCAQEA1upFgQrJOTEf
2M82ug3RU7tuOozMYealVDMrYP+1xrq8Z+iAUXFR4nbYwL0vXc1wiIgGO6WNSg8B
5uD+ZkgCfQ2jU2MdfuEuDCJOHCe/CzN1/VByYHP+q3WzSj9KMB8kqXkiJVd1XzC2
p5sdC4NCl/xIR3VnCn2bgQkzGnII49f0WMzYyTuWf/QGYfnx/N2IcT9eiCoAWbXS
WKytX9xJC/8JQjgeJEddfDdsmaUnJ5BBvTxKaYV68TpHDm2MwjR+aNrHGnP8rCTs
tHWQ1Y9AcXsOshGgWJvCaykF5irPOaVX19WnfKaYMGpj3EPBepSlP3vr8v7jFe8e
zxyZU2tvUQIDAQABo4IBYTCCAV0wDAYDVR0TAQH/BAIwADAdBgNVHQ4EFgQUtAQO
C6jXx1TfJhH96jgssJuK09wwgYwGA1UdIwSBhDCBgYAUZdMjF0xahiLE2Jug6BCK
joJYyCuhXqRcMFoxCzAJBgNVBAYTAkZSMQwwCgYDVQQIEwNJREYxDjAMBgNVBAcT
BVBhcmlzMRkwFwYDVQQKExBGYWtlIENBIGZvciBUZXN0MRIwEAYDVQQDEwlOb2Rl
T1BDVUGCCQDLBavtYGUVUzA/BgNVHREEODA2hh51cm46bG9jYWxob3N0Ok5vZGVP
UENVQS1DbGllbnSCCWxvY2FsaG9zdIIJbG9jYWxob3N0MCwGCWCGSAGG+EIBDQQf
Fh1PcGVuU1NMIEdlbmVyYXRlZCBDZXJ0aWZpY2F0ZTAOBgNVHQ8BAf8EBAMCAvww
IAYDVR0lAQH/BBYwFAYIKwYBBQUHAwEGCCsGAQUFBwMCMA0GCSqGSIb3DQEBCwUA
A4IBAQCLFjmh0I07z+U0HVCyexbYMJMJl7YDaFfGpzyUwJN1iYzJztVrPS4Lx1yX
elyfO+nRzu8XKY3aWHD0dzXpj+09DJeaS7lQmQ3leQxre2XkjBejgFo4+JDUfZo4
kwV3pQ5PaF8ag4x+GecIJpVzcTPx6+FKsPDo8CzWQ3oBoDPf06oyQP7NFyFubej5
U2P8InYFevL1gD3UOelJ1dL1I9xCE9RYCScyZE0rmeMZUVdHv5/hMu455Ex8gPHv
x+nzTzo4pob7mN7voQtDLIO22TOGA+KVcvkZV66rzxMhxCwYDdBtz1fUdJwjjJ6q
osTejAMDKnfHv3S3+LL4Go8A2HBF
-----END CERTIFICATE-----
