Certificate:
    Data:
        Version: 3 (0x2)
        Serial Number: 4098 (0x1002)
    Signature Algorithm: sha256WithRSAEncryption
        Issuer: O=NodeOPCUA, CN=NodeOPCUA
        Validity
            Not Before: Jan 31 15:08:11 2018 GMT
            Not After : Jan 31 15:08:11 2019 GMT
        Subject: O=NodeOPCUA, CN=NodeOPCUA
        Subject Public Key Info:
            Public Key Algorithm: rsaEncryption
                Public-Key: (1024 bit)
                Modulus:
                    00:e5:04:26:8d:c7:42:f1:6b:ec:06:fb:49:e7:7f:
                    1c:c3:d7:0f:59:28:da:44:0d:88:ff:76:0c:97:36:
                    61:39:0b:48:34:62:6e:9a:2c:92:b0:cc:e7:65:f6:
                    34:80:45:4e:ae:5e:19:c1:1c:a8:ce:c3:d5:5a:b8:
                    41:52:1f:10:89:e5:e5:c7:cb:07:f7:4b:cf:c3:e4:
                    ea:0e:54:e0:e3:48:e1:3b:65:ed:a8:78:a3:c2:da:
                    48:aa:0d:7d:d1:1e:3b:b7:65:23:a3:5b:05:6e:06:
                    ae:4e:08:99:7d:cd:d8:7b:89:85:84:05:76:a1:51:
                    6f:8d:1b:55:81:c1:5c:02:53
                Exponent: 65537 (0x10001)
        X509v3 extensions:
            X509v3 Basic Constraints: critical
                CA:FALSE
            X509v3 Subject Key Identifier: 
                D2:3E:50:68:57:B5:69:68:B6:E3:59:D9:D0:A7:F7:18:47:B5:76:D8
            X509v3 Authority Key Identifier: 
                keyid:D2:3E:50:68:57:B5:69:68:B6:E3:59:D9:D0:A7:F7:18:47:B5:76:D8
                DirName:/O=NodeOPCUA/CN=NodeOPCUA
                serial:10:02

            X509v3 Subject Alternative Name: 
                URI:urn:localhost:NodeOPCUA-Client, DNS:localhost, DNS:localhost
            Netscape Comment: 
                OpenSSL Generated Certificate
            X509v3 Key Usage: critical
                Digital Signature, Non Repudiation, Key Encipherment, Data Encipherment, Key Agreement, Certificate Sign
            X509v3 Extended Key Usage: critical
                TLS Web Server Authentication, TLS Web Client Authentication
    Signature Algorithm: sha256WithRSAEncryption
         88:88:fb:95:56:b4:3f:48:80:6b:d0:db:6e:c9:4a:aa:fe:5e:
         af:c2:7f:54:ac:db:ac:7b:e5:f0:03:6e:97:ec:23:fc:46:87:
         29:01:4d:d6:fa:a5:da:f9:cc:05:2e:35:c3:35:28:64:45:d8:
         f7:e6:95:38:40:cd:bc:a6:4e:d2:a6:b9:65:cf:c7:8c:5b:21:
         c9:1a:d6:06:e3:5e:f7:00:14:cb:18:a4:f9:64:0f:fb:4b:ff:
         4d:11:bc:9f:5e:09:41:0f:b5:6c:a4:9e:c5:57:7a:e9:2b:10:
         2d:af:aa:3a:f8:f2:b6:e5:08:af:f1:7f:39:ca:b2:ac:03:00:
         d0:a8
-----BEGIN CERTIFICATE-----
MIIC7jCCAlegAwIBAgICEAIwDQYJKoZIhvcNAQELBQAwKDESMBAGA1UEChMJTm9k
ZU9QQ1VBMRIwEAYDVQQDEwlOb2RlT1BDVUEwHhcNMTgwMTMxMTUwODExWhcNMTkw
MTMxMTUwODExWjAoMRIwEAYDVQQKEwlOb2RlT1BDVUExEjAQBgNVBAMTCU5vZGVP
UENVQTCBnzANBgkqhkiG9w0BAQEFAAOBjQAwgYkCgYEA5QQmjcdC8WvsBvtJ538c
w9cPWSjaRA2I/3YMlzZhOQtINGJumiySsMznZfY0gEVOrl4ZwRyozsPVWrhBUh8Q
ieXlx8sH90vPw+TqDlTg40jhO2XtqHijwtpIqg190R47t2Ujo1sFbgauTgiZfc3Y
e4mFhAV2oVFvjRtVgcFcAlMCAwEAAaOCASUwggEhMAwGA1UdEwEB/wQCMAAwHQYD
VR0OBBYEFNI+UGhXtWlotuNZ2dCn9xhHtXbYMFEGA1UdIwRKMEiAFNI+UGhXtWlo
tuNZ2dCn9xhHtXbYoSykKjAoMRIwEAYDVQQKEwlOb2RlT1BDVUExEjAQBgNVBAMT
CU5vZGVPUENVQYICEAIwPwYDVR0RBDgwNoYedXJuOmxvY2FsaG9zdDpOb2RlT1BD
VUEtQ2xpZW50gglsb2NhbGhvc3SCCWxvY2FsaG9zdDAsBglghkgBhvhCAQ0EHxYd
T3BlblNTTCBHZW5lcmF0ZWQgQ2VydGlmaWNhdGUwDgYDVR0PAQH/BAQDAgL8MCAG
A1UdJQEB/wQWMBQGCCsGAQUFBwMBBggrBgEFBQcDAjANBgkqhkiG9w0BAQsFAAOB
gQCIiPuVVrQ/SIBr0NtuyUqq/l6vwn9UrNuse+XwA26X7CP8RocpAU3W+qXa+cwF
LjXDNShkRdj35pU4QM28pk7Sprllz8eMWyHJGtYG4173ABTLGKT5ZA/7S/9NEbyf
XglBD7VspJ7FV3rpKxAtr6o6+PK25Qiv8X85yrKsAwDQqA==
-----END CERTIFICATE-----
