Certificate:
    Data:
        Version: 3 (0x2)
        Serial Number: 4099 (0x1003)
    Signature Algorithm: sha256WithRSAEncryption
        Issuer: O=NodeOPCUA, CN=NodeOPCUA
        Validity
            Not Before: Jan 31 15:08:11 2018 GMT
            Not After : Jan 31 15:08:11 2019 GMT
        Subject: O=NodeOPCUA, CN=NodeOPCUA
        Subject Public Key Info:
            Public Key Algorithm: rsaEncryption
                Public-Key: (2048 bit)
                Modulus:
                    00:d6:ea:45:81:0a:c9:39:31:1f:d8:cf:36:ba:0d:
                    d1:53:bb:6e:3a:8c:cc:61:e6:a5:54:33:2b:60:ff:
                    b5:c6:ba:bc:67:e8:80:51:71:51:e2:76:d8:c0:bd:
                    2f:5d:cd:70:88:88:06:3b:a5:8d:4a:0f:01:e6:e0:
                    fe:66:48:02:7d:0d:a3:53:63:1d:7e:e1:2e:0c:22:
                    4e:1c:27:bf:0b:33:75:fd:50:72:60:73:fe:ab:75:
                    b3:4a:3f:4a:30:1f:24:a9:79:22:25:57:75:5f:30:
                    b6:a7:9b:1d:0b:83:42:97:fc:48:47:75:67:0a:7d:
                    9b:81:09:33:1a:72:08:e3:d7:f4:58:cc:d8:c9:3b:
                    96:7f:f4:06:61:f9:f1:fc:dd:88:71:3f:5e:88:2a:
                    00:59:b5:d2:58:ac:ad:5f:dc:49:0b:ff:09:42:38:
                    1e:24:47:5d:7c:37:6c:99:a5:27:27:90:41:bd:3c:
                    4a:69:85:7a:f1:3a:47:0e:6d:8c:c2:34:7e:68:da:
                    c7:1a:73:fc:ac:24:ec:b4:75:90:d5:8f:40:71:7b:
                    0e:b2:11:a0:58:9b:c2:6b:29:05:e6:2a:cf:39:a5:
                    57:d7:d5:a7:7c:a6:98:30:6a:63:dc:43:c1:7a:94:
                    a5:3f:7b:eb:f2:fe:e3:15:ef:1e:cf:1c:99:53:6b:
                    6f:51
                Exponent: 65537 (0x10001)
        X509v3 extensions:
            X509v3 Basic Constraints: critical
                CA:FALSE
            X509v3 Subject Key Identifier: 
                B4:04:0E:0B:A8:D7:C7:54:DF:26:11:FD:EA:38:2C:B0:9B:8A:D3:DC
            X509v3 Authority Key Identifier: 
                keyid:B4:04:0E:0B:A8:D7:C7:54:DF:26:11:FD:EA:38:2C:B0:9B:8A:D3:DC
                DirName:/O=NodeOPCUA/CN=NodeOPCUA
                serial:10:03

            X509v3 Subject Alternative Name: 
                URI:urn:localhost:NodeOPCUA-Client, DNS:localhost, DNS:localhost
            Netscape Comment: 
                OpenSSL Generated Certificate
            X509v3 Key Usage: critical
                Digital Signature, Non Repudiation, Key Encipherment, Data Encipherment, Key Agreement, Certificate Sign
            X509v3 Extended Key Usage: critical
                TLS Web Server Authentication, TLS Web Client Authentication
    Signature Algorithm: sha256WithRSAEncryption
         c4:b6:e3:99:ef:54:99:68:ab:76:59:58:80:dc:f7:96:98:01:
         a3:77:bf:5c:88:09:81:9c:63:50:be:fa:3e:31:e1:8a:88:f1:
         70:4a:78:1a:19:13:dc:d9:fd:1a:27:60:c4:9a:e2:cc:c7:c2:
         04:82:cf:4e:d0:de:ab:5e:3b:27:05:ff:0a:f9:7a:ef:fb:23:
         db:16:81:a6:af:c3:47:04:3a:9c:b9:52:54:5f:f6:38:40:06:
         28:0b:c4:32:63:57:d3:72:10:e6:00:17:23:7c:8f:80:e8:aa:
         73:90:24:e9:73:fa:2e:29:02:55:0d:f7:cb:1d:ff:b9:b4:e3:
         fc:b4:2a:2e:08:8f:ee:2e:c4:e7:e4:ee:bc:70:5b:ef:e6:f2:
         9c:15:2b:da:7c:af:22:50:8c:18:0f:5c:6e:06:b8:79:ce:cd:
         e2:bd:eb:3e:2e:36:72:4e:f7:44:81:44:1b:b1:e5:03:53:d8:
         9f:92:f3:e1:76:ce:58:73:f9:be:8a:94:a4:b9:05:2a:88:0c:
         2f:da:19:ae:0f:11:b2:33:1a:09:3e:ca:14:55:03:60:3d:59:
         2b:fc:72:b3:af:a6:04:ad:76:86:55:71:5f:4d:0f:73:e8:17:
         4b:c3:60:dc:62:a0:70:3d:44:9e:98:f8:a5:cb:d9:3a:d8:a2:
         69:fd:76:c7
-----BEGIN CERTIFICATE-----
MIID8zCCAtugAwIBAgICEAMwDQYJKoZIhvcNAQELBQAwKDESMBAGA1UEChMJTm9k
ZU9QQ1VBMRIwEAYDVQQDEwlOb2RlT1BDVUEwHhcNMTgwMTMxMTUwODExWhcNMTkw
MTMxMTUwODExWjAoMRIwEAYDVQQKEwlOb2RlT1BDVUExEjAQBgNVBAMTCU5vZGVP
UENVQTCCASIwDQYJKoZIhvcNAQEBBQADggEPADCCAQoCggEBANbqRYEKyTkxH9jP
NroN0VO7bjqMzGHmpVQzK2D/tca6vGfogFFxUeJ22MC9L13NcIiIBjuljUoPAebg
/mZIAn0No1NjHX7hLgwiThwnvwszdf1QcmBz/qt1s0o/SjAfJKl5IiVXdV8wtqeb
HQuDQpf8SEd1Zwp9m4EJMxpyCOPX9FjM2Mk7ln/0BmH58fzdiHE/XogqAFm10lis
rV/cSQv/CUI4HiRHXXw3bJmlJyeQQb08SmmFevE6Rw5tjMI0fmjaxxpz/Kwk7LR1
kNWPQHF7DrIRoFibwmspBeYqzzmlV9fVp3ymmDBqY9xDwXqUpT976/L+4xXvHs8c
mVNrb1ECAwEAAaOCASUwggEhMAwGA1UdEwEB/wQCMAAwHQYDVR0OBBYEFLQEDguo
18dU3yYR/eo4LLCbitPcMFEGA1UdIwRKMEiAFLQEDguo18dU3yYR/eo4LLCbitPc
oSykKjAoMRIwEAYDVQQKEwlOb2RlT1BDVUExEjAQBgNVBAMTCU5vZGVPUENVQYIC
EAMwPwYDVR0RBDgwNoYedXJuOmxvY2FsaG9zdDpOb2RlT1BDVUEtQ2xpZW50ggls
b2NhbGhvc3SCCWxvY2FsaG9zdDAsBglghkgBhvhCAQ0EHxYdT3BlblNTTCBHZW5l
cmF0ZWQgQ2VydGlmaWNhdGUwDgYDVR0PAQH/BAQDAgL8MCAGA1UdJQEB/wQWMBQG
CCsGAQUFBwMBBggrBgEFBQcDAjANBgkqhkiG9w0BAQsFAAOCAQEAxLbjme9UmWir
dllYgNz3lpgBo3e/XIgJgZxjUL76PjHhiojxcEp4GhkT3Nn9GidgxJrizMfCBILP
TtDeq147JwX/Cvl67/sj2xaBpq/DRwQ6nLlSVF/2OEAGKAvEMmNX03IQ5gAXI3yP
gOiqc5Ak6XP6LikCVQ33yx3/ubTj/LQqLgiP7i7E5+TuvHBb7+bynBUr2nyvIlCM
GA9cbga4ec7N4r3rPi42ck73RIFEG7HlA1PYn5Lz4XbOWHP5voqUpLkFKogML9oZ
rg8RsjMaCT7KFFUDYD1ZK/xys6+mBK12hlVxX00Pc+gXS8Ng3GKgcD1Enpj4pcvZ
Otiiaf12xw==
-----END CERTIFICATE-----
