Certificate:
    Data:
        Version: 3 (0x2)
        Serial Number: 4100 (0x1004)
    Signature Algorithm: sha256WithRSAEncryption
        Issuer: C=FR, ST=IDF, L=Paris, O=Fake CA for Test, CN=NodeOPCUA
        Validity
            Not Before: Jan 31 15:08:11 2018 GMT
            Not After : Jan 31 15:08:11 2019 GMT
        Subject: O=NodeOPCUA, CN=NodeOPCUA
        Subject Public Key Info:
            Public Key Algorithm: rsaEncryption
                Public-Key: (1024 bit)
                Modulus:
                    00:db:53:d6:15:f4:1a:04:28:0d:79:2a:af:f9:bc:
                    b3:ea:15:a5:79:1a:6b:20:07:f4:31:cd:a9:c6:45:
                    b7:df:30:49:45:25:5a:31:75:ed:25:52:73:16:3e:
                    0d:ab:4f:e3:78:22:aa:a3:25:99:5a:47:8e:f3:ba:
                    98:1d:44:76:8a:23:22:b3:d3:b5:f7:d8:04:3f:74:
                    4c:99:27:cb:e4:88:e6:a7:03:c9:94:f2:66:0a:d2:
                    c9:14:2e:46:27:58:09:53:32:a2:3e:a0:39:10:f1:
                    75:15:16:8a:b7:b1:8d:9c:a9:98:a1:c1:2e:10:fe:
                    f7:e8:ad:0b:bd:82:11:8f:4b
                Exponent: 65537 (0x10001)
        X509v3 extensions:
            X509v3 Basic Constraints: critical
                CA:FALSE
            X509v3 Subject Key Identifier: 
                30:02:9C:0C:F2:26:BC:87:C2:57:47:A2:CF:CF:2B:01:E1:C1:B1:63
            X509v3 Authority Key Identifier: 
                keyid:65:D3:23:17:4C:5A:86:22:C4:D8:9B:A0:E8:10:8A:8E:82:58:C8:2B
                DirName:/C=FR/ST=IDF/L=Paris/O=Fake CA for Test/CN=NodeOPCUA
                serial:CB:05:AB:ED:60:65:15:53

            X509v3 Subject Alternative Name: 
                URI:urn:localhost:NodeOPCUA-Server, DNS:localhost, DNS:localhost
            Netscape Comment: 
                OpenSSL Generated Certificate
            X509v3 Key Usage: critical
                Digital Signature, Non Repudiation, Key Encipherment, Data Encipherment, Key Agreement, Certificate Sign
            X509v3 Extended Key Usage: critical
                TLS Web Server Authentication, TLS Web Client Authentication
    Signature Algorithm: sha256WithRSAEncryption
         5d:e8:63:e3:2e:01:44:85:d3:7e:95:c6:d9:97:9e:65:36:2c:
         c1:6a:bf:f5:22:45:44:73:9d:85:ad:a1:8c:ff:e5:d5:04:34:
         4b:13:92:2c:44:18:08:f8:b2:ea:df:68:4d:9c:98:d2:bc:57:
         76:48:c3:34:3e:74:14:3f:3c:c1:af:1d:8a:6a:7d:a0:42:e4:
         eb:10:c7:69:21:ee:01:34:35:95:97:46:8c:05:43:ea:73:ae:
         b7:f0:63:82:d2:72:ba:50:fb:38:79:7e:a0:31:0a:64:16:89:
         a7:8a:b0:63:16:8f:2a:5f:0c:6b:4f:c4:d9:fb:b3:db:bd:b0:
         a9:f9:9a:b8:5c:6c:a8:2c:c9:9a:13:e4:d6:6e:b3:de:8d:10:
         31:52:b3:d8:5e:64:3f:f7:d0:f9:2d:fe:8a:98:cb:bf:a1:eb:
         bc:0b:10:63:71:6c:47:69:c8:2b:ba:2b:9c:e8:6f:14:ee:f1:
         48:60:44:c7:f6:45:6b:42:6a:6b:b5:8b:da:81:c4:fd:c3:51:
         4e:23:56:c0:f5:d5:7c:79:20:12:47:da:1a:78:5b:60:a3:de:
         9d:26:c0:aa:7e:80:af:7e:a9:94:b4:e1:d5:7f:3e:0b:97:18:
         38:29:2f:53:27:da:1b:28:e5:18:52:43:08:0b:ec:5e:88:c3:
         8e:1e:f7:b9
-----BEGIN CERTIFICATE-----
MIID3TCCAsWgAwIBAgICEAQwDQYJKoZIhvcNAQELBQAwWjELMAkGA1UEBhMCRlIx
DDAKBgNVBAgTA0lERjEOMAwGA1UEBxMFUGFyaXMxGTAXBgNVBAoTEEZha2UgQ0Eg
Zm9yIFRlc3QxEjAQBgNVBAMTCU5vZGVPUENVQTAeFw0xODAxMzExNTA4MTFaFw0x
OTAxMzExNTA4MTFaMCgxEjAQBgNVBAoTCU5vZGVPUENVQTESMBAGA1UEAxMJTm9k
ZU9QQ1VBMIGfMA0GCSqGSIb3DQEBAQUAA4GNADCBiQKBgQDbU9YV9BoEKA15Kq/5
vLPqFaV5GmsgB/QxzanGRbffMElFJVoxde0lUnMWPg2rT+N4IqqjJZlaR47zupgd
RHaKIyKz07X32AQ/dEyZJ8vkiOanA8mU8mYK0skULkYnWAlTMqI+oDkQ8XUVFoq3
sY2cqZihwS4Q/vforQu9ghGPSwIDAQABo4IBYTCCAV0wDAYDVR0TAQH/BAIwADAd
BgNVHQ4EFgQUMAKcDPImvIfCV0eiz88rAeHBsWMwgYwGA1UdIwSBhDCBgYAUZdMj
F0xahiLE2Jug6BCKjoJYyCuhXqRcMFoxCzAJBgNVBAYTAkZSMQwwCgYDVQQIEwNJ
REYxDjAMBgNVBAcTBVBhcmlzMRkwFwYDVQQKExBGYWtlIENBIGZvciBUZXN0MRIw
EAYDVQQDEwlOb2RlT1BDVUGCCQDLBavtYGUVUzA/BgNVHREEODA2hh51cm46bG9j
YWxob3N0Ok5vZGVPUENVQS1TZXJ2ZXKCCWxvY2FsaG9zdIIJbG9jYWxob3N0MCwG
CWCGSAGG+EIBDQQfFh1PcGVuU1NMIEdlbmVyYXRlZCBDZXJ0aWZpY2F0ZTAOBgNV
HQ8BAf8EBAMCAvwwIAYDVR0lAQH/BBYwFAYIKwYBBQUHAwEGCCsGAQUFBwMCMA0G
CSqGSIb3DQEBCwUAA4IBAQBd6GPjLgFEhdN+lcbZl55lNizBar/1IkVEc52FraGM
/+XVBDRLE5IsRBgI+LLq32hNnJjSvFd2SMM0PnQUPzzBrx2Kan2gQuTrEMdpIe4B
NDWVl0aMBUPqc6638GOC0nK6UPs4eX6gMQpkFomnirBjFo8qXwxrT8TZ+7PbvbCp
+Zq4XGyoLMmaE+TWbrPejRAxUrPYXmQ/99D5Lf6KmMu/oeu8CxBjcWxHacgruiuc
6G8U7vFIYETH9kVrQmprtYvagcT9w1FOI1bA9dV8eSASR9oaeFtgo96dJsCqfoCv
fqmUtOHVfz4Llxg4KS9TJ9obKOUYUkMIC+xeiMOOHve5
-----END CERTIFICATE-----
