Certificate:
    Data:
        Version: 3 (0x2)
        Serial Number: 4103 (0x1007)
    Signature Algorithm: sha256WithRSAEncryption
        Issuer: O=NodeOPCUA, CN=NodeOPCUA
        Validity
            Not Before: Jan 31 15:08:11 2018 GMT
            Not After : Jan 31 15:08:11 2019 GMT
        Subject: O=NodeOPCUA, CN=NodeOPCUA
        Subject Public Key Info:
            Public Key Algorithm: rsaEncryption
                Public-Key: (2048 bit)
                Modulus:
                    00:df:46:61:ce:e9:18:fc:1e:2d:df:d2:db:b1:78:
                    3d:a8:53:17:e2:0b:cb:1c:9a:e1:22:02:3f:14:97:
                    d8:b1:40:06:f7:24:d4:c9:f1:b9:46:e2:26:8a:c8:
                    3c:bc:b9:45:f0:60:b4:97:84:62:7a:d9:8b:15:c4:
                    5a:f0:92:cf:fd:ae:c4:51:a7:14:30:be:4d:16:49:
                    48:3c:e1:ae:0b:38:29:ce:08:ae:89:70:64:c5:df:
                    59:02:4c:6a:16:91:76:94:e3:8f:d9:5c:e6:0e:07:
                    8e:50:24:a2:1c:f9:57:ad:12:a1:e1:ae:c1:9e:73:
                    81:60:0b:cf:fe:c7:cc:85:51:20:62:ab:0e:c4:63:
                    2d:e8:fc:9e:5a:d8:e0:fa:08:a4:f8:a0:c7:1a:56:
                    ac:51:e3:e3:03:63:49:ac:e2:86:80:48:1c:e0:7c:
                    dd:22:dc:fa:5d:d5:b2:6f:10:c0:fe:b8:53:f4:c7:
                    0e:15:b2:10:d0:06:c5:e8:70:67:40:f4:de:3e:20:
                    dc:b1:45:ac:73:b8:cd:00:c7:67:9e:74:08:8a:3c:
                    54:7d:a6:7c:ad:d6:a3:9a:19:29:11:5f:33:7c:c3:
                    4d:42:82:3f:b8:aa:0c:02:a3:8a:fb:d1:25:a7:a6:
                    36:fa:41:9f:62:45:8a:42:f6:fd:31:fb:73:a3:c3:
                    2f:c7
                Exponent: 65537 (0x10001)
        X509v3 extensions:
            X509v3 Basic Constraints: critical
                CA:FALSE
            X509v3 Subject Key Identifier: 
                6C:4A:2D:42:F6:80:C1:E5:01:B4:39:5D:E8:EF:78:50:07:10:2B:D9
            X509v3 Authority Key Identifier: 
                keyid:6C:4A:2D:42:F6:80:C1:E5:01:B4:39:5D:E8:EF:78:50:07:10:2B:D9
                DirName:/O=NodeOPCUA/CN=NodeOPCUA
                serial:10:07

            X509v3 Subject Alternative Name: 
                URI:urn:localhost:NodeOPCUA-Server, DNS:localhost, DNS:localhost
            Netscape Comment: 
                OpenSSL Generated Certificate
            X509v3 Key Usage: critical
                Digital Signature, Non Repudiation, Key Encipherment, Data Encipherment, Key Agreement, Certificate Sign
            X509v3 Extended Key Usage: critical
                TLS Web Server Authentication, TLS Web Client Authentication
    Signature Algorithm: sha256WithRSAEncryption
         89:f5:74:1c:f7:5b:d2:4a:ba:7e:2b:e3:de:31:45:aa:d4:dc:
         10:3e:7b:cd:aa:23:29:96:81:43:49:6a:7d:91:6a:4a:86:32:
         b3:d1:69:fa:35:0d:02:07:29:0e:2c:d8:aa:5c:71:ce:a3:2f:
         07:d9:ac:1f:c4:a1:3f:b8:df:78:7b:72:70:c8:86:eb:5b:b1:
         dd:cc:d8:7a:ad:9c:54:cb:73:35:0e:3b:ad:c7:dd:58:1f:ee:
         60:0f:e1:8b:01:58:1d:95:3f:3a:f7:3f:f5:fa:71:e2:f6:ca:
         16:1d:4b:f8:70:50:49:76:58:c3:57:00:ab:98:41:47:7e:b4:
         a7:b1:b0:39:cb:38:67:e7:aa:d1:f8:70:9a:25:71:a6:d3:44:
         35:7a:6c:63:ea:c6:17:ac:0b:cc:4b:16:02:58:b0:91:4b:05:
         fd:f4:ac:2a:4f:b7:c6:9b:ad:63:23:d6:5b:58:63:03:b4:01:
         3a:36:c7:b2:45:3c:99:e1:85:96:1e:e4:20:6d:86:be:ab:d0:
         cc:06:05:37:a4:25:47:fc:6b:10:76:53:b2:82:83:86:51:ca:
         87:76:94:b9:a9:35:d2:e1:db:14:c6:e6:97:83:d3:04:77:ca:
         9f:2b:a3:5b:89:10:6f:b5:ba:d9:3e:5c:f6:87:7c:7b:e0:83:
         fa:14:6c:ba
-----BEGIN CERTIFICATE-----
MIID8zCCAtugAwIBAgICEAcwDQYJKoZIhvcNAQELBQAwKDESMBAGA1UEChMJTm9k
ZU9QQ1VBMRIwEAYDVQQDEwlOb2RlT1BDVUEwHhcNMTgwMTMxMTUwODExWhcNMTkw
MTMxMTUwODExWjAoMRIwEAYDVQQKEwlOb2RlT1BDVUExEjAQBgNVBAMTCU5vZGVP
UENVQTCCASIwDQYJKoZIhvcNAQEBBQADggEPADCCAQoCggEBAN9GYc7pGPweLd/S
27F4PahTF+ILyxya4SICPxSX2LFABvck1MnxuUbiJorIPLy5RfBgtJeEYnrZixXE
WvCSz/2uxFGnFDC+TRZJSDzhrgs4Kc4IrolwZMXfWQJMahaRdpTjj9lc5g4HjlAk
ohz5V60SoeGuwZ5zgWALz/7HzIVRIGKrDsRjLej8nlrY4PoIpPigxxpWrFHj4wNj
SazihoBIHOB83SLc+l3Vsm8QwP64U/THDhWyENAGxehwZ0D03j4g3LFFrHO4zQDH
Z550CIo8VH2mfK3Wo5oZKRFfM3zDTUKCP7iqDAKjivvRJaemNvpBn2JFikL2/TH7
c6PDL8cCAwEAAaOCASUwggEhMAwGA1UdEwEB/wQCMAAwHQYDVR0OBBYEFGxKLUL2
gMHlAbQ5XejveFAHECvZMFEGA1UdIwRKMEiAFGxKLUL2gMHlAbQ5XejveFAHECvZ
oSykKjAoMRIwEAYDVQQKEwlOb2RlT1BDVUExEjAQBgNVBAMTCU5vZGVPUENVQYIC
EAcwPwYDVR0RBDgwNoYedXJuOmxvY2FsaG9zdDpOb2RlT1BDVUEtU2VydmVyggls
b2NhbGhvc3SCCWxvY2FsaG9zdDAsBglghkgBhvhCAQ0EHxYdT3BlblNTTCBHZW5l
cmF0ZWQgQ2VydGlmaWNhdGUwDgYDVR0PAQH/BAQDAgL8MCAGA1UdJQEB/wQWMBQG
CCsGAQUFBwMBBggrBgEFBQcDAjANBgkqhkiG9w0BAQsFAAOCAQEAifV0HPdb0kq6
fivj3jFFqtTcED57zaojKZaBQ0lqfZFqSoYys9Fp+jUNAgcpDizYqlxxzqMvB9ms
H8ShP7jfeHtycMiG61ux3czYeq2cVMtzNQ47rcfdWB/uYA/hiwFYHZU/Ovc/9fpx
4vbKFh1L+HBQSXZYw1cAq5hBR360p7GwOcs4Z+eq0fhwmiVxptNENXpsY+rGF6wL
zEsWAliwkUsF/fSsKk+3xputYyPWW1hjA7QBOjbHskU8meGFlh7kIG2GvqvQzAYF
N6QlR/xrEHZTsoKDhlHKh3aUuak10uHbFMbml4PTBHfKnyujW4kQb7W62T5c9od8
e+CD+hRsug==
-----END CERTIFICATE-----
