Certificate:
    Data:
        Version: 3 (0x2)
        Serial Number: 4096 (0x1000)
    Signature Algorithm: sha256WithRSAEncryption
        Issuer: C=FR, ST=IDF, L=Paris, O=Local NODE-OPCUA Certificate Authority, CN=NodeOPCUA-CA
        Validity
            Not Before: Apr 19 14:13:34 2018 GMT
            Not After : Apr 19 14:13:34 2019 GMT
        Subject: C=FR, O=NodeOPCUA, CN=NodeOPCUA
        Subject Public Key Info:
            Public Key Algorithm: rsaEncryption
                Public-Key: (1024 bit)
                Modulus:
                    00:ab:d3:7e:ac:1f:12:0e:e5:21:04:08:25:21:9c:
                    53:da:03:3a:27:4d:b7:0a:70:ab:21:d9:9d:09:c7:
                    d3:d6:a0:f2:35:64:9c:82:64:44:8f:cf:ac:2e:3a:
                    ef:37:d5:d0:cd:98:f5:8f:11:03:66:05:a7:fb:45:
                    67:d7:96:6c:c6:1a:01:fd:5d:29:cb:b7:d5:d0:6a:
                    a8:ca:b2:0b:45:ec:74:e6:5b:16:7d:a7:4b:41:b9:
                    06:52:85:b6:7c:b1:76:0a:af:73:83:14:be:3f:6b:
                    04:49:ac:6e:5e:09:d2:a7:2f:63:4f:89:f6:e2:4c:
                    8c:06:4d:ff:67:dc:69:39:dd
                Exponent: 65537 (0x10001)
        X509v3 extensions:
            X509v3 Basic Constraints: critical
                CA:FALSE
            X509v3 Subject Key Identifier: 
                20:59:3F:35:52:FD:46:70:67:5C:04:F2:7C:88:58:D9:A1:05:62:83
            X509v3 Authority Key Identifier: 
                keyid:DA:C7:A8:18:75:0A:DD:19:01:81:96:CA:42:A9:55:8B:73:48:7A:36
                DirName:/C=FR/ST=IDF/L=Paris/O=Local NODE-OPCUA Certificate Authority/CN=NodeOPCUA-CA
                serial:BF:DA:73:A9:03:D6:6E:9C

            X509v3 Subject Alternative Name: 
                URI:urn:localhost:NodeOPCUA-Client, DNS:localhost, DNS:localhost
            Netscape Comment: 
                OpenSSL Generated Certificate
            X509v3 Key Usage: critical
                Digital Signature, Non Repudiation, Key Encipherment, Data Encipherment, Key Agreement, Certificate Sign
            X509v3 Extended Key Usage: critical
                TLS Web Server Authentication, TLS Web Client Authentication
    Signature Algorithm: sha256WithRSAEncryption
         a1:f4:8e:f2:86:75:c0:0e:e6:6b:65:3a:c5:09:c9:c1:0c:23:
         49:21:74:a5:a9:59:d1:44:92:f5:05:03:8f:29:b6:e8:bc:41:
         f6:1f:31:a9:fd:53:eb:84:fe:02:08:1c:6b:39:4e:95:1c:8b:
         15:26:d9:d0:c5:99:ad:c7:84:b5:31:3d:c3:09:75:a2:b0:a9:
         c3:a7:18:a5:16:4a:aa:55:02:17:46:31:64:66:f6:ba:ff:a4:
         4d:b8:26:03:68:6c:65:1c:e1:e8:ad:e4:91:b5:9b:f6:58:55:
         7c:19:d0:0b:a8:03:ea:61:5c:be:c4:aa:5f:65:a5:04:3b:1f:
         a9:f5:be:88:41:b6:29:91:bf:ba:ed:cb:b8:7d:ec:14:c6:b8:
         35:35:e6:98:d0:88:55:9c:eb:35:ba:75:0e:0e:af:ae:28:00:
         97:5a:53:a7:da:c3:92:49:21:da:38:bd:8a:3a:0a:51:e8:87:
         e2:1d:ac:79:8d:32:b9:3a:1b:05:26:63:e2:82:fb:ac:4b:7f:
         68:03:56:4e:fb:d4:6f:1f:a8:46:a1:ad:09:85:a0:22:09:55:
         b3:20:a5:4a:9d:02:f0:79:8b:92:d2:ad:8c:97:07:9a:81:4c:
         b5:bf:e2:7f:40:59:23:1b:09:7d:78:9d:48:95:2e:5a:67:f6:
         45:38:39:2f
-----BEGIN CERTIFICATE-----
MIIEIDCCAwigAwIBAgICEAAwDQYJKoZIhvcNAQELBQAwczELMAkGA1UEBhMCRlIx
DDAKBgNVBAgTA0lERjEOMAwGA1UEBxMFUGFyaXMxLzAtBgNVBAoTJkxvY2FsIE5P
REUtT1BDVUEgQ2VydGlmaWNhdGUgQXV0aG9yaXR5MRUwEwYDVQQDEwxOb2RlT1BD
VUEtQ0EwIhgPMjAxODA0MTkxNDEzMzRaGA8yMDE5MDQxOTE0MTMzNFowNTELMAkG
A1UEBhMCRlIxEjAQBgNVBAoMCU5vZGVPUENVQTESMBAGA1UEAwwJTm9kZU9QQ1VB
MIGfMA0GCSqGSIb3DQEBAQUAA4GNADCBiQKBgQCr036sHxIO5SEECCUhnFPaAzon
TbcKcKsh2Z0Jx9PWoPI1ZJyCZESPz6wuOu831dDNmPWPEQNmBaf7RWfXlmzGGgH9
XSnLt9XQaqjKsgtF7HTmWxZ9p0tBuQZShbZ8sXYKr3ODFL4/awRJrG5eCdKnL2NP
ifbiTIwGTf9n3Gk53QIDAQABo4IBejCCAXYwDAYDVR0TAQH/BAIwADAdBgNVHQ4E
FgQUIFk/NVL9RnBnXATyfIhY2aEFYoMwgaUGA1UdIwSBnTCBmoAU2seoGHUK3RkB
gZbKQqlVi3NIejahd6R1MHMxCzAJBgNVBAYTAkZSMQwwCgYDVQQIEwNJREYxDjAM
BgNVBAcTBVBhcmlzMS8wLQYDVQQKEyZMb2NhbCBOT0RFLU9QQ1VBIENlcnRpZmlj
YXRlIEF1dGhvcml0eTEVMBMGA1UEAxMMTm9kZU9QQ1VBLUNBggkAv9pzqQPWbpww
PwYDVR0RBDgwNoYedXJuOmxvY2FsaG9zdDpOb2RlT1BDVUEtQ2xpZW50gglsb2Nh
bGhvc3SCCWxvY2FsaG9zdDAsBglghkgBhvhCAQ0EHxYdT3BlblNTTCBHZW5lcmF0
ZWQgQ2VydGlmaWNhdGUwDgYDVR0PAQH/BAQDAgL8MCAGA1UdJQEB/wQWMBQGCCsG
AQUFBwMBBggrBgEFBQcDAjANBgkqhkiG9w0BAQsFAAOCAQEAofSO8oZ1wA7ma2U6
xQnJwQwjSSF0palZ0USS9QUDjym26LxB9h8xqf1T64T+AggcazlOlRyLFSbZ0MWZ
rceEtTE9wwl1orCpw6cYpRZKqlUCF0YxZGb2uv+kTbgmA2hsZRzh6K3kkbWb9lhV
fBnQC6gD6mFcvsSqX2WlBDsfqfW+iEG2KZG/uu3LuH3sFMa4NTXmmNCIVZzrNbp1
Dg6vrigAl1pTp9rDkkkh2ji9ijoKUeiH4h2seY0yuTobBSZj4oL7rEt/aANWTvvU
bx+oRqGtCYWgIglVsyClSp0C8HmLktKtjJcHmoFMtb/if0BZIxsJfXidSJUuWmf2
RTg5Lw==
-----END CERTIFICATE-----
