Certificate:
    Data:
        Version: 3 (0x2)
        Serial Number: 4097 (0x1001)
    Signature Algorithm: sha256WithRSAEncryption
        Issuer: O=NodeOPCUA, CN=NodeOPCUA
        Validity
            Not Before: Apr 19 14:13:34 2018 GMT
            Not After : Apr 19 14:13:34 2019 GMT
        Subject: O=NodeOPCUA, CN=NodeOPCUA
        Subject Public Key Info:
            Public Key Algorithm: rsaEncryption
                Public-Key: (1024 bit)
                Modulus:
                    00:ab:d3:7e:ac:1f:12:0e:e5:21:04:08:25:21:9c:
                    53:da:03:3a:27:4d:b7:0a:70:ab:21:d9:9d:09:c7:
                    d3:d6:a0:f2:35:64:9c:82:64:44:8f:cf:ac:2e:3a:
                    ef:37:d5:d0:cd:98:f5:8f:11:03:66:05:a7:fb:45:
                    67:d7:96:6c:c6:1a:01:fd:5d:29:cb:b7:d5:d0:6a:
                    a8:ca:b2:0b:45:ec:74:e6:5b:16:7d:a7:4b:41:b9:
                    06:52:85:b6:7c:b1:76:0a:af:73:83:14:be:3f:6b:
                    04:49:ac:6e:5e:09:d2:a7:2f:63:4f:89:f6:e2:4c:
                    8c:06:4d:ff:67:dc:69:39:dd
                Exponent: 65537 (0x10001)
        X509v3 extensions:
            X509v3 Basic Constraints: critical
                CA:FALSE
            X509v3 Subject Key Identifier: 
                20:59:3F:35:52:FD:46:70:67:5C:04:F2:7C:88:58:D9:A1:05:62:83
            X509v3 Authority Key Identifier: 
                keyid:20:59:3F:35:52:FD:46:70:67:5C:04:F2:7C:88:58:D9:A1:05:62:83
                DirName:/O=NodeOPCUA/CN=NodeOPCUA
                serial:10:01

            X509v3 Subject Alternative Name: 
                URI:urn:localhost:NodeOPCUA-Client, DNS:localhost, DNS:localhost
            Netscape Comment: 
                OpenSSL Generated Certificate
            X509v3 Key Usage: critical
                Digital Signature, Non Repudiation, Key Encipherment, Data Encipherment, Key Agreement, Certificate Sign
            X509v3 Extended Key Usage: critical
                TLS Web Server Authentication, TLS Web Client Authentication
    Signature Algorithm: sha256WithRSAEncryption
         20:07:a2:1b:d0:8e:ae:9d:45:e9:50:ee:6e:e1:c8:84:dd:7a:
         38:f4:06:94:84:6d:b2:ee:72:06:b6:60:77:6c:a5:43:49:55:
         d1:52:cf:da:40:2e:97:c1:9b:80:ca:95:4f:21:81:5c:20:ff:
         fc:b0:63:35:28:bd:f8:86:bc:20:8e:a3:17:65:bb:13:97:af:
         c5:ed:f5:76:32:8e:2a:a4:9c:32:00:09:bd:07:cb:ed:f5:73:
         88:73:4a:2c:cb:59:b5:e7:e7:80:43:fc:96:b5:ee:b1:83:53:
         0f:01:ac:d2:18:ea:8d:ef:f0:ad:b3:05:31:e0:e5:6c:6a:59:
         68:a4
-----BEGIN CERTIFICATE-----
MIIC8jCCAlugAwIBAgICEAEwDQYJKoZIhvcNAQELBQAwKDESMBAGA1UEChMJTm9k
ZU9QQ1VBMRIwEAYDVQQDEwlOb2RlT1BDVUEwIhgPMjAxODA0MTkxNDEzMzRaGA8y
MDE5MDQxOTE0MTMzNFowKDESMBAGA1UEChMJTm9kZU9QQ1VBMRIwEAYDVQQDEwlO
b2RlT1BDVUEwgZ8wDQYJKoZIhvcNAQEBBQADgY0AMIGJAoGBAKvTfqwfEg7lIQQI
JSGcU9oDOidNtwpwqyHZnQnH09ag8jVknIJkRI/PrC467zfV0M2Y9Y8RA2YFp/tF
Z9eWbMYaAf1dKcu31dBqqMqyC0XsdOZbFn2nS0G5BlKFtnyxdgqvc4MUvj9rBEms
bl4J0qcvY0+J9uJMjAZN/2fcaTndAgMBAAGjggElMIIBITAMBgNVHRMBAf8EAjAA
MB0GA1UdDgQWBBQgWT81Uv1GcGdcBPJ8iFjZoQVigzBRBgNVHSMESjBIgBQgWT81
Uv1GcGdcBPJ8iFjZoQVig6EspCowKDESMBAGA1UEChMJTm9kZU9QQ1VBMRIwEAYD
VQQDEwlOb2RlT1BDVUGCAhABMD8GA1UdEQQ4MDaGHnVybjpsb2NhbGhvc3Q6Tm9k
ZU9QQ1VBLUNsaWVudIIJbG9jYWxob3N0gglsb2NhbGhvc3QwLAYJYIZIAYb4QgEN
BB8WHU9wZW5TU0wgR2VuZXJhdGVkIENlcnRpZmljYXRlMA4GA1UdDwEB/wQEAwIC
/DAgBgNVHSUBAf8EFjAUBggrBgEFBQcDAQYIKwYBBQUHAwIwDQYJKoZIhvcNAQEL
BQADgYEAIAeiG9COrp1F6VDubuHIhN16OPQGlIRtsu5yBrZgd2ylQ0lV0VLP2kAu
l8GbgMqVTyGBXCD//LBjNSi9+Ia8II6jF2W7E5evxe31djKOKqScMgAJvQfL7fVz
iHNKLMtZtefngEP8lrXusYNTDwGs0hjqje/wrbMFMeDlbGpZaKQ=
-----END CERTIFICATE-----
