Certificate:
    Data:
        Version: 3 (0x2)
        Serial Number: 4099 (0x1003)
    Signature Algorithm: sha256WithRSAEncryption
        Issuer: O=NodeOPCUA, CN=NodeOPCUA
        Validity
            Not Before: Apr 19 14:13:34 2018 GMT
            Not After : Apr 19 14:13:34 2019 GMT
        Subject: O=NodeOPCUA, CN=NodeOPCUA
        Subject Public Key Info:
            Public Key Algorithm: rsaEncryption
                Public-Key: (2048 bit)
                Modulus:
                    00:cb:e8:c5:f1:6b:10:82:f3:26:3e:ec:18:40:95:
                    20:0d:9d:77:fd:b9:7b:8d:4e:fb:f1:ad:a7:06:30:
                    e7:bb:f5:46:a2:7c:b2:49:41:67:88:07:9d:38:d9:
                    59:46:4d:a3:7c:77:f9:fe:6f:c1:b9:42:a5:6f:b3:
                    5a:43:0e:14:4d:55:f5:29:8d:bb:b5:60:3f:ad:74:
                    c4:18:21:f6:8b:2f:63:75:ec:09:c3:0d:9a:92:08:
                    f6:0c:5e:af:97:6e:7d:2f:d8:2f:5a:90:56:63:31:
                    09:dd:40:07:5d:db:ce:e8:a2:d1:85:42:41:04:84:
                    f6:39:5c:84:19:fc:e3:e6:08:2a:6d:71:81:75:b3:
                    e6:d0:53:69:01:3f:25:8c:e7:6b:cd:41:9b:85:a5:
                    bb:0d:32:2f:40:c7:e9:84:c5:96:11:1d:c6:31:2b:
                    f3:58:35:f7:02:47:ba:09:1a:ee:76:00:19:76:92:
                    67:2d:b2:e2:53:59:fe:a1:bc:72:79:a0:97:c4:ac:
                    c9:68:ae:cd:be:75:6b:98:05:23:55:db:40:6d:22:
                    e4:9d:27:25:d6:1b:f2:37:e0:46:75:be:ff:ac:1b:
                    dc:75:06:eb:da:da:e4:bc:18:b8:31:7b:99:cf:d7:
                    53:d9:5d:c4:f8:64:64:8b:23:8e:72:6f:21:05:e7:
                    da:8d
                Exponent: 65537 (0x10001)
        X509v3 extensions:
            X509v3 Basic Constraints: critical
                CA:FALSE
            X509v3 Subject Key Identifier: 
                79:2D:C4:14:43:C4:46:19:30:12:24:54:CE:95:D1:1B:31:E2:DB:7D
            X509v3 Authority Key Identifier: 
                keyid:79:2D:C4:14:43:C4:46:19:30:12:24:54:CE:95:D1:1B:31:E2:DB:7D
                DirName:/O=NodeOPCUA/CN=NodeOPCUA
                serial:10:03

            X509v3 Subject Alternative Name: 
                URI:urn:localhost:NodeOPCUA-Client, DNS:localhost, DNS:localhost
            Netscape Comment: 
                OpenSSL Generated Certificate
            X509v3 Key Usage: critical
                Digital Signature, Non Repudiation, Key Encipherment, Data Encipherment, Key Agreement, Certificate Sign
            X509v3 Extended Key Usage: critical
                TLS Web Server Authentication, TLS Web Client Authentication
    Signature Algorithm: sha256WithRSAEncryption
         1c:53:d9:bf:2a:3d:d9:2a:1b:e3:07:74:8f:40:d4:69:34:fa:
         da:c9:5e:a2:09:5a:fb:c4:4b:39:f5:5f:b2:dc:96:eb:ec:43:
         8d:bc:a5:60:4c:32:de:11:c3:69:88:69:f4:30:60:17:79:ca:
         57:66:bc:67:45:2f:33:d4:c5:2c:90:a8:45:cd:2e:d1:7d:f0:
         8d:bb:9a:29:33:cb:5d:57:60:99:b1:96:c4:c4:da:b3:8c:b9:
         be:49:34:64:88:fb:50:8e:39:9c:de:9c:54:00:4d:43:a1:78:
         7f:8a:b6:0c:c5:bb:90:48:86:0c:24:3b:d3:5c:82:65:6c:4d:
         f7:39:be:94:78:d7:c3:aa:c4:cf:42:44:ac:9b:49:c9:37:fd:
         5f:1b:53:1e:6c:94:50:81:d7:85:eb:f1:3b:b8:99:4b:9c:07:
         5e:e1:10:4a:2b:cd:4c:b8:07:43:33:00:31:9a:b3:6e:42:96:
         1e:ae:1e:08:92:d8:6e:1a:9f:1c:68:c3:9f:bb:a8:80:e0:f9:
         9a:51:42:68:c6:91:57:08:b7:bc:a0:4d:58:58:e1:2c:52:31:
         e5:49:7e:22:2c:53:62:94:5f:50:4a:85:a5:92:28:37:ee:a3:
         9c:e5:e6:d3:cd:f9:04:f7:2c:5d:a0:e3:76:92:9c:f3:3f:e4:
         50:37:e6:cb
-----BEGIN CERTIFICATE-----
MIID9zCCAt+gAwIBAgICEAMwDQYJKoZIhvcNAQELBQAwKDESMBAGA1UEChMJTm9k
ZU9QQ1VBMRIwEAYDVQQDEwlOb2RlT1BDVUEwIhgPMjAxODA0MTkxNDEzMzRaGA8y
MDE5MDQxOTE0MTMzNFowKDESMBAGA1UEChMJTm9kZU9QQ1VBMRIwEAYDVQQDEwlO
b2RlT1BDVUEwggEiMA0GCSqGSIb3DQEBAQUAA4IBDwAwggEKAoIBAQDL6MXxaxCC
8yY+7BhAlSANnXf9uXuNTvvxracGMOe79UaifLJJQWeIB5042VlGTaN8d/n+b8G5
QqVvs1pDDhRNVfUpjbu1YD+tdMQYIfaLL2N17AnDDZqSCPYMXq+Xbn0v2C9akFZj
MQndQAdd287ootGFQkEEhPY5XIQZ/OPmCCptcYF1s+bQU2kBPyWM52vNQZuFpbsN
Mi9Ax+mExZYRHcYxK/NYNfcCR7oJGu52ABl2kmctsuJTWf6hvHJ5oJfErMlors2+
dWuYBSNV20BtIuSdJyXWG/I34EZ1vv+sG9x1Buva2uS8GLgxe5nP11PZXcT4ZGSL
I45ybyEF59qNAgMBAAGjggElMIIBITAMBgNVHRMBAf8EAjAAMB0GA1UdDgQWBBR5
LcQUQ8RGGTASJFTOldEbMeLbfTBRBgNVHSMESjBIgBR5LcQUQ8RGGTASJFTOldEb
MeLbfaEspCowKDESMBAGA1UEChMJTm9kZU9QQ1VBMRIwEAYDVQQDEwlOb2RlT1BD
VUGCAhADMD8GA1UdEQQ4MDaGHnVybjpsb2NhbGhvc3Q6Tm9kZU9QQ1VBLUNsaWVu
dIIJbG9jYWxob3N0gglsb2NhbGhvc3QwLAYJYIZIAYb4QgENBB8WHU9wZW5TU0wg
R2VuZXJhdGVkIENlcnRpZmljYXRlMA4GA1UdDwEB/wQEAwIC/DAgBgNVHSUBAf8E
FjAUBggrBgEFBQcDAQYIKwYBBQUHAwIwDQYJKoZIhvcNAQELBQADggEBABxT2b8q
PdkqG+MHdI9A1Gk0+trJXqIJWvvESzn1X7LcluvsQ428pWBMMt4Rw2mIafQwYBd5
yldmvGdFLzPUxSyQqEXNLtF98I27mikzy11XYJmxlsTE2rOMub5JNGSI+1COOZze
nFQATUOheH+KtgzFu5BIhgwkO9NcgmVsTfc5vpR418OqxM9CRKybSck3/V8bUx5s
lFCB14Xr8Tu4mUucB17hEEorzUy4B0MzADGas25Clh6uHgiS2G4anxxow5+7qIDg
+ZpRQmjGkVcIt7ygTVhY4SxSMeVJfiIsU2KUX1BKhaWSKDfuo5zl5tPN+QT3LF2g
43aSnPM/5FA35ss=
-----END CERTIFICATE-----
