Certificate:
    Data:
        Version: 3 (0x2)
        Serial Number: 4100 (0x1004)
    Signature Algorithm: sha256WithRSAEncryption
        Issuer: C=FR, ST=IDF, L=Paris, O=Local NODE-OPCUA Certificate Authority, CN=NodeOPCUA-CA
        Validity
            Not Before: Apr 19 14:13:34 2018 GMT
            Not After : Apr 19 14:13:34 2019 GMT
        Subject: C=FR, O=NodeOPCUA, CN=NodeOPCUA
        Subject Public Key Info:
            Public Key Algorithm: rsaEncryption
                Public-Key: (1024 bit)
                Modulus:
                    00:eb:af:b9:dd:36:cd:d1:59:f7:f9:ca:6a:57:04:
                    b5:77:5e:c8:b5:58:13:03:c8:46:d3:fd:ae:27:4d:
                    88:10:35:ac:4d:f2:52:2b:1e:db:20:ef:4c:40:30:
                    8c:91:dd:19:d1:d1:7d:dd:0a:a3:b9:3e:3b:4d:d4:
                    6e:a0:a9:74:ee:85:20:6b:74:7a:c6:40:ae:fa:7b:
                    a5:92:14:a3:12:34:50:d2:39:6d:49:87:e5:93:59:
                    ab:82:f4:0b:63:e2:8e:06:8a:64:7a:88:9d:6e:c8:
                    30:8c:5c:0d:7e:72:d0:8c:70:82:9d:6c:2b:08:29:
                    9c:80:28:1f:88:aa:8e:28:81
                Exponent: 65537 (0x10001)
        X509v3 extensions:
            X509v3 Basic Constraints: critical
                CA:FALSE
            X509v3 Subject Key Identifier: 
                EF:D3:12:2C:17:EF:CB:DB:24:84:7B:92:9C:DF:67:FA:FB:AA:38:07
            X509v3 Authority Key Identifier: 
                keyid:DA:C7:A8:18:75:0A:DD:19:01:81:96:CA:42:A9:55:8B:73:48:7A:36
                DirName:/C=FR/ST=IDF/L=Paris/O=Local NODE-OPCUA Certificate Authority/CN=NodeOPCUA-CA
                serial:BF:DA:73:A9:03:D6:6E:9C

            X509v3 Subject Alternative Name: 
                URI:urn:localhost:NodeOPCUA-Server, DNS:localhost, DNS:localhost
            Netscape Comment: 
                OpenSSL Generated Certificate
            X509v3 Key Usage: critical
                Digital Signature, Non Repudiation, Key Encipherment, Data Encipherment, Key Agreement, Certificate Sign
            X509v3 Extended Key Usage: critical
                TLS Web Server Authentication, TLS Web Client Authentication
    Signature Algorithm: sha256WithRSAEncryption
         90:cf:5f:6c:b7:52:c3:f8:01:f1:e0:c0:66:c1:71:a1:4a:16:
         0d:58:89:2d:df:aa:01:cb:59:43:a1:89:05:a3:3c:ed:70:91:
         43:93:fe:24:5e:f9:b5:c3:93:ee:8b:09:f1:1a:84:e4:6f:99:
         4e:66:20:5a:ef:9f:c7:ee:db:72:20:d6:06:94:6b:82:41:be:
         e1:dc:d6:c2:3f:cf:26:30:8c:be:5d:6f:76:6f:d5:a6:27:dc:
         66:2d:43:70:04:f8:37:a6:dd:1b:73:47:57:84:17:16:97:4a:
         64:0b:90:12:9c:68:0c:8d:e8:75:39:eb:0c:b6:6d:91:98:d4:
         a1:11:69:3e:81:e4:f8:f6:fb:b3:83:d2:77:19:30:3b:9f:22:
         63:ef:a4:70:8f:61:d4:40:6b:39:42:bf:d7:66:6c:fe:48:7f:
         3e:8c:83:8c:21:ce:cb:54:f8:f6:f8:0a:07:f3:bd:14:a5:e3:
         49:ea:c4:9e:ce:e3:ab:85:e7:d1:09:7a:aa:0d:44:78:0e:e1:
         91:e8:b1:92:c8:bd:8c:d1:33:d4:57:cf:3b:fb:a2:4c:b3:9f:
         56:44:d2:f2:10:a8:d4:02:49:b2:3e:9c:0d:01:4e:cd:b0:90:
         66:70:22:ba:b4:1f:82:73:c1:2d:92:49:df:b3:ba:2d:07:1a:
         ea:76:f1:51
-----BEGIN CERTIFICATE-----
MIIEIDCCAwigAwIBAgICEAQwDQYJKoZIhvcNAQELBQAwczELMAkGA1UEBhMCRlIx
DDAKBgNVBAgTA0lERjEOMAwGA1UEBxMFUGFyaXMxLzAtBgNVBAoTJkxvY2FsIE5P
REUtT1BDVUEgQ2VydGlmaWNhdGUgQXV0aG9yaXR5MRUwEwYDVQQDEwxOb2RlT1BD
VUEtQ0EwIhgPMjAxODA0MTkxNDEzMzRaGA8yMDE5MDQxOTE0MTMzNFowNTELMAkG
A1UEBhMCRlIxEjAQBgNVBAoMCU5vZGVPUENVQTESMBAGA1UEAwwJTm9kZU9QQ1VB
MIGfMA0GCSqGSIb3DQEBAQUAA4GNADCBiQKBgQDrr7ndNs3RWff5ympXBLV3Xsi1
WBMDyEbT/a4nTYgQNaxN8lIrHtsg70xAMIyR3RnR0X3dCqO5PjtN1G6gqXTuhSBr
dHrGQK76e6WSFKMSNFDSOW1Jh+WTWauC9Atj4o4GimR6iJ1uyDCMXA1+ctCMcIKd
bCsIKZyAKB+Iqo4ogQIDAQABo4IBejCCAXYwDAYDVR0TAQH/BAIwADAdBgNVHQ4E
FgQU79MSLBfvy9skhHuSnN9n+vuqOAcwgaUGA1UdIwSBnTCBmoAU2seoGHUK3RkB
gZbKQqlVi3NIejahd6R1MHMxCzAJBgNVBAYTAkZSMQwwCgYDVQQIEwNJREYxDjAM
BgNVBAcTBVBhcmlzMS8wLQYDVQQKEyZMb2NhbCBOT0RFLU9QQ1VBIENlcnRpZmlj
YXRlIEF1dGhvcml0eTEVMBMGA1UEAxMMTm9kZU9QQ1VBLUNBggkAv9pzqQPWbpww
PwYDVR0RBDgwNoYedXJuOmxvY2FsaG9zdDpOb2RlT1BDVUEtU2VydmVygglsb2Nh
bGhvc3SCCWxvY2FsaG9zdDAsBglghkgBhvhCAQ0EHxYdT3BlblNTTCBHZW5lcmF0
ZWQgQ2VydGlmaWNhdGUwDgYDVR0PAQH/BAQDAgL8MCAGA1UdJQEB/wQWMBQGCCsG
AQUFBwMBBggrBgEFBQcDAjANBgkqhkiG9w0BAQsFAAOCAQEAkM9fbLdSw/gB8eDA
ZsFxoUoWDViJLd+qActZQ6GJBaM87XCRQ5P+JF75tcOT7osJ8RqE5G+ZTmYgWu+f
x+7bciDWBpRrgkG+4dzWwj/PJjCMvl1vdm/VpifcZi1DcAT4N6bdG3NHV4QXFpdK
ZAuQEpxoDI3odTnrDLZtkZjUoRFpPoHk+Pb7s4PSdxkwO58iY++kcI9h1EBrOUK/
12Zs/kh/PoyDjCHOy1T49vgKB/O9FKXjSerEns7jq4Xn0Ql6qg1EeA7hkeixksi9
jNEz1FfPO/uiTLOfVkTS8hCo1AJJsj6cDQFOzbCQZnAiurQfgnPBLZJJ37O6LQca
6nbxUQ==
-----END CERTIFICATE-----
