Certificate:
    Data:
        Version: 3 (0x2)
        Serial Number: 4101 (0x1005)
    Signature Algorithm: sha256WithRSAEncryption
        Issuer: O=NodeOPCUA, CN=NodeOPCUA
        Validity
            Not Before: Apr 19 14:13:34 2018 GMT
            Not After : Apr 19 14:13:34 2019 GMT
        Subject: O=NodeOPCUA, CN=NodeOPCUA
        Subject Public Key Info:
            Public Key Algorithm: rsaEncryption
                Public-Key: (1024 bit)
                Modulus:
                    00:eb:af:b9:dd:36:cd:d1:59:f7:f9:ca:6a:57:04:
                    b5:77:5e:c8:b5:58:13:03:c8:46:d3:fd:ae:27:4d:
                    88:10:35:ac:4d:f2:52:2b:1e:db:20:ef:4c:40:30:
                    8c:91:dd:19:d1:d1:7d:dd:0a:a3:b9:3e:3b:4d:d4:
                    6e:a0:a9:74:ee:85:20:6b:74:7a:c6:40:ae:fa:7b:
                    a5:92:14:a3:12:34:50:d2:39:6d:49:87:e5:93:59:
                    ab:82:f4:0b:63:e2:8e:06:8a:64:7a:88:9d:6e:c8:
                    30:8c:5c:0d:7e:72:d0:8c:70:82:9d:6c:2b:08:29:
                    9c:80:28:1f:88:aa:8e:28:81
                Exponent: 65537 (0x10001)
        X509v3 extensions:
            X509v3 Basic Constraints: critical
                CA:FALSE
            X509v3 Subject Key Identifier: 
                EF:D3:12:2C:17:EF:CB:DB:24:84:7B:92:9C:DF:67:FA:FB:AA:38:07
            X509v3 Authority Key Identifier: 
                keyid:EF:D3:12:2C:17:EF:CB:DB:24:84:7B:92:9C:DF:67:FA:FB:AA:38:07
                DirName:/O=NodeOPCUA/CN=NodeOPCUA
                serial:10:05

            X509v3 Subject Alternative Name: 
                URI:urn:localhost:NodeOPCUA-Server, DNS:localhost, DNS:localhost
            Netscape Comment: 
                OpenSSL Generated Certificate
            X509v3 Key Usage: critical
                Digital Signature, Non Repudiation, Key Encipherment, Data Encipherment, Key Agreement, Certificate Sign
            X509v3 Extended Key Usage: critical
                TLS Web Server Authentication, TLS Web Client Authentication
    Signature Algorithm: sha256WithRSAEncryption
         77:8b:34:19:32:34:7c:87:c0:a0:a9:b5:67:c1:e5:46:6a:06:
         36:7c:e8:a0:dc:db:10:fe:bf:cb:1e:ad:1e:f4:51:3d:62:da:
         6e:cb:b4:1e:5f:5a:46:5c:d1:b1:61:6f:74:5b:cb:c3:69:f6:
         36:8f:c2:96:e3:17:e3:a7:4f:76:37:96:c7:f2:0e:82:97:41:
         ee:2e:88:65:4a:d8:2d:bb:1a:3b:50:ec:7c:20:b3:67:bb:b5:
         d7:62:89:ac:71:0a:d1:b0:67:8d:15:f8:74:ac:f0:c1:d2:d1:
         a4:d8:a0:58:f3:7a:9c:9d:51:0a:63:a3:d4:2c:01:2c:87:d9:
         1d:6d
-----BEGIN CERTIFICATE-----
MIIC8jCCAlugAwIBAgICEAUwDQYJKoZIhvcNAQELBQAwKDESMBAGA1UEChMJTm9k
ZU9QQ1VBMRIwEAYDVQQDEwlOb2RlT1BDVUEwIhgPMjAxODA0MTkxNDEzMzRaGA8y
MDE5MDQxOTE0MTMzNFowKDESMBAGA1UEChMJTm9kZU9QQ1VBMRIwEAYDVQQDEwlO
b2RlT1BDVUEwgZ8wDQYJKoZIhvcNAQEBBQADgY0AMIGJAoGBAOuvud02zdFZ9/nK
alcEtXdeyLVYEwPIRtP9ridNiBA1rE3yUise2yDvTEAwjJHdGdHRfd0Ko7k+O03U
bqCpdO6FIGt0esZArvp7pZIUoxI0UNI5bUmH5ZNZq4L0C2PijgaKZHqInW7IMIxc
DX5y0Ixwgp1sKwgpnIAoH4iqjiiBAgMBAAGjggElMIIBITAMBgNVHRMBAf8EAjAA
MB0GA1UdDgQWBBTv0xIsF+/L2ySEe5Kc32f6+6o4BzBRBgNVHSMESjBIgBTv0xIs
F+/L2ySEe5Kc32f6+6o4B6EspCowKDESMBAGA1UEChMJTm9kZU9QQ1VBMRIwEAYD
VQQDEwlOb2RlT1BDVUGCAhAFMD8GA1UdEQQ4MDaGHnVybjpsb2NhbGhvc3Q6Tm9k
ZU9QQ1VBLVNlcnZlcoIJbG9jYWxob3N0gglsb2NhbGhvc3QwLAYJYIZIAYb4QgEN
BB8WHU9wZW5TU0wgR2VuZXJhdGVkIENlcnRpZmljYXRlMA4GA1UdDwEB/wQEAwIC
/DAgBgNVHSUBAf8EFjAUBggrBgEFBQcDAQYIKwYBBQUHAwIwDQYJKoZIhvcNAQEL
BQADgYEAd4s0GTI0fIfAoKm1Z8HlRmoGNnzooNzbEP6/yx6tHvRRPWLabsu0Hl9a
RlzRsWFvdFvLw2n2No/CluMX46dPdjeWx/IOgpdB7i6IZUrYLbsaO1DsfCCzZ7u1
12KJrHEK0bBnjRX4dKzwwdLRpNigWPN6nJ1RCmOj1CwBLIfZHW0=
-----END CERTIFICATE-----
