Certificate:
    Data:
        Version: 3 (0x2)
        Serial Number: 4102 (0x1006)
    Signature Algorithm: sha256WithRSAEncryption
        Issuer: C=FR, ST=IDF, L=Paris, O=Local NODE-OPCUA Certificate Authority, CN=NodeOPCUA-CA
        Validity
            Not Before: Apr 19 14:13:34 2018 GMT
            Not After : Apr 19 14:13:34 2019 GMT
        Subject: C=FR, O=NodeOPCUA, CN=NodeOPCUA
        Subject Public Key Info:
            Public Key Algorithm: rsaEncryption
                Public-Key: (2048 bit)
                Modulus:
                    00:b1:e0:14:fd:c0:32:a1:ca:c4:36:e1:9e:38:7c:
                    a5:ad:3f:18:6e:ca:d2:80:8c:f7:73:de:a8:c2:43:
                    de:32:67:05:47:09:5c:08:9b:0e:86:4d:cc:fa:7d:
                    e1:09:ec:df:3f:14:d9:6a:12:10:e1:e9:b5:38:6b:
                    16:51:84:18:64:a3:fc:55:55:af:87:7e:1d:9a:b9:
                    67:20:63:de:c3:9a:9d:3f:f5:a2:d7:93:7c:90:9d:
                    31:c2:7c:1c:42:1e:c1:39:b7:58:2e:7e:33:48:f0:
                    08:fe:6e:88:51:15:8b:27:91:bd:6e:15:e0:69:ce:
                    59:10:75:a5:33:1a:91:c8:40:25:50:62:f3:ff:83:
                    5c:d2:09:a0:cb:40:47:dd:33:4c:f4:6d:ce:1b:c5:
                    c5:f8:97:93:57:98:67:c7:78:9a:44:84:a1:26:a4:
                    62:27:db:eb:59:21:6f:9f:db:d2:7d:0d:43:fa:1f:
                    e0:84:ec:d3:b5:e9:1f:4d:f8:21:67:48:6b:05:f5:
                    c4:df:d4:65:7b:ea:30:8e:b4:ad:64:5a:e3:5b:94:
                    cf:a2:6b:6e:5d:d1:16:26:de:59:0d:40:a1:28:68:
                    a6:b5:92:95:b8:8c:b7:df:f1:9a:7f:8c:b9:4a:15:
                    58:26:31:be:ab:f0:0b:d8:a4:df:c1:07:af:f1:91:
                    f4:01
                Exponent: 65537 (0x10001)
        X509v3 extensions:
            X509v3 Basic Constraints: critical
                CA:FALSE
            X509v3 Subject Key Identifier: 
                64:3F:0A:1C:42:2F:7C:BE:35:E4:E0:41:C5:F9:7A:2E:F8:08:F2:3E
            X509v3 Authority Key Identifier: 
                keyid:DA:C7:A8:18:75:0A:DD:19:01:81:96:CA:42:A9:55:8B:73:48:7A:36
                DirName:/C=FR/ST=IDF/L=Paris/O=Local NODE-OPCUA Certificate Authority/CN=NodeOPCUA-CA
                serial:BF:DA:73:A9:03:D6:6E:9C

            X509v3 Subject Alternative Name: 
                URI:urn:localhost:NodeOPCUA-Server, DNS:localhost, DNS:localhost
            Netscape Comment: 
                OpenSSL Generated Certificate
            X509v3 Key Usage: critical
                Digital Signature, Non Repudiation, Key Encipherment, Data Encipherment, Key Agreement, Certificate Sign
            X509v3 Extended Key Usage: critical
                TLS Web Server Authentication, TLS Web Client Authentication
    Signature Algorithm: sha256WithRSAEncryption
         34:25:8f:be:40:dc:64:68:ba:49:e7:1e:2c:79:29:de:4c:42:
         de:30:2b:a1:de:8d:58:09:11:d6:70:e5:f9:8f:3b:c7:95:0b:
         1e:df:5d:52:d9:fe:a0:36:3a:16:c8:10:df:60:6d:71:2f:d8:
         2d:3a:90:3f:4e:29:76:b8:00:3a:04:39:58:84:de:e6:3d:68:
         46:91:37:5a:69:12:39:e5:0b:18:bd:ad:27:96:57:f4:b0:e4:
         06:ba:2c:db:e1:91:18:e6:5c:22:38:2a:5b:93:23:d6:1b:69:
         15:10:a9:1c:01:a9:d5:19:69:8a:f1:5e:92:1f:8d:04:85:19:
         b5:68:3c:55:10:46:56:76:51:2c:43:64:34:94:cc:27:fc:ce:
         eb:51:bf:9b:70:23:29:b6:11:0d:e2:9e:5d:f4:35:06:49:05:
         87:8f:45:dc:c8:08:24:79:d0:05:36:d2:8d:b5:81:5e:44:c9:
         11:77:40:8c:10:f3:28:c8:e5:b0:e8:ee:76:34:87:d9:1f:67:
         67:9e:a1:d9:ff:e4:b9:41:6b:77:ed:47:c3:45:48:fa:5a:ab:
         49:38:37:03:8e:77:87:a5:6a:07:2c:00:30:bb:20:ae:d8:37:
         b6:ef:39:54:00:5a:2a:63:47:7e:dd:5c:cd:4f:ae:70:54:d2:
         ed:dd:00:12
-----BEGIN CERTIFICATE-----
MIIEpDCCA4ygAwIBAgICEAYwDQYJKoZIhvcNAQELBQAwczELMAkGA1UEBhMCRlIx
DDAKBgNVBAgTA0lERjEOMAwGA1UEBxMFUGFyaXMxLzAtBgNVBAoTJkxvY2FsIE5P
REUtT1BDVUEgQ2VydGlmaWNhdGUgQXV0aG9yaXR5MRUwEwYDVQQDEwxOb2RlT1BD
VUEtQ0EwIhgPMjAxODA0MTkxNDEzMzRaGA8yMDE5MDQxOTE0MTMzNFowNTELMAkG
A1UEBhMCRlIxEjAQBgNVBAoMCU5vZGVPUENVQTESMBAGA1UEAwwJTm9kZU9QQ1VB
MIIBIjANBgkqhkiG9w0BAQEFAAOCAQ8AMIIBCgKCAQEAseAU/cAyocrENuGeOHyl
rT8YbsrSgIz3c96owkPeMmcFRwlcCJsOhk3M+n3hCezfPxTZahIQ4em1OGsWUYQY
ZKP8VVWvh34dmrlnIGPew5qdP/Wi15N8kJ0xwnwcQh7BObdYLn4zSPAI/m6IURWL
J5G9bhXgac5ZEHWlMxqRyEAlUGLz/4Nc0gmgy0BH3TNM9G3OG8XF+JeTV5hnx3ia
RIShJqRiJ9vrWSFvn9vSfQ1D+h/ghOzTtekfTfghZ0hrBfXE39Rle+owjrStZFrj
W5TPomtuXdEWJt5ZDUChKGimtZKVuIy33/Gaf4y5ShVYJjG+q/AL2KTfwQev8ZH0
AQIDAQABo4IBejCCAXYwDAYDVR0TAQH/BAIwADAdBgNVHQ4EFgQUZD8KHEIvfL41
5OBBxfl6LvgI8j4wgaUGA1UdIwSBnTCBmoAU2seoGHUK3RkBgZbKQqlVi3NIejah
d6R1MHMxCzAJBgNVBAYTAkZSMQwwCgYDVQQIEwNJREYxDjAMBgNVBAcTBVBhcmlz
MS8wLQYDVQQKEyZMb2NhbCBOT0RFLU9QQ1VBIENlcnRpZmljYXRlIEF1dGhvcml0
eTEVMBMGA1UEAxMMTm9kZU9QQ1VBLUNBggkAv9pzqQPWbpwwPwYDVR0RBDgwNoYe
dXJuOmxvY2FsaG9zdDpOb2RlT1BDVUEtU2VydmVygglsb2NhbGhvc3SCCWxvY2Fs
aG9zdDAsBglghkgBhvhCAQ0EHxYdT3BlblNTTCBHZW5lcmF0ZWQgQ2VydGlmaWNh
dGUwDgYDVR0PAQH/BAQDAgL8MCAGA1UdJQEB/wQWMBQGCCsGAQUFBwMBBggrBgEF
BQcDAjANBgkqhkiG9w0BAQsFAAOCAQEANCWPvkDcZGi6SeceLHkp3kxC3jArod6N
WAkR1nDl+Y87x5ULHt9dUtn+oDY6FsgQ32BtcS/YLTqQP04pdrgAOgQ5WITe5j1o
RpE3WmkSOeULGL2tJ5ZX9LDkBros2+GRGOZcIjgqW5Mj1htpFRCpHAGp1RlpivFe
kh+NBIUZtWg8VRBGVnZRLENkNJTMJ/zO61G/m3AjKbYRDeKeXfQ1BkkFh49F3MgI
JHnQBTbSjbWBXkTJEXdAjBDzKMjlsOjudjSH2R9nZ56h2f/kuUFrd+1Hw0VI+lqr
STg3A453h6VqBywAMLsgrtg3tu85VABaKmNHft1czU+ucFTS7d0AEg==
-----END CERTIFICATE-----
