Certificate:
    Data:
        Version: 3 (0x2)
        Serial Number: 4103 (0x1007)
    Signature Algorithm: sha256WithRSAEncryption
        Issuer: O=NodeOPCUA, CN=NodeOPCUA
        Validity
            Not Before: Apr 19 14:13:34 2018 GMT
            Not After : Apr 19 14:13:34 2019 GMT
        Subject: O=NodeOPCUA, CN=NodeOPCUA
        Subject Public Key Info:
            Public Key Algorithm: rsaEncryption
                Public-Key: (2048 bit)
                Modulus:
                    00:b1:e0:14:fd:c0:32:a1:ca:c4:36:e1:9e:38:7c:
                    a5:ad:3f:18:6e:ca:d2:80:8c:f7:73:de:a8:c2:43:
                    de:32:67:05:47:09:5c:08:9b:0e:86:4d:cc:fa:7d:
                    e1:09:ec:df:3f:14:d9:6a:12:10:e1:e9:b5:38:6b:
                    16:51:84:18:64:a3:fc:55:55:af:87:7e:1d:9a:b9:
                    67:20:63:de:c3:9a:9d:3f:f5:a2:d7:93:7c:90:9d:
                    31:c2:7c:1c:42:1e:c1:39:b7:58:2e:7e:33:48:f0:
                    08:fe:6e:88:51:15:8b:27:91:bd:6e:15:e0:69:ce:
                    59:10:75:a5:33:1a:91:c8:40:25:50:62:f3:ff:83:
                    5c:d2:09:a0:cb:40:47:dd:33:4c:f4:6d:ce:1b:c5:
                    c5:f8:97:93:57:98:67:c7:78:9a:44:84:a1:26:a4:
                    62:27:db:eb:59:21:6f:9f:db:d2:7d:0d:43:fa:1f:
                    e0:84:ec:d3:b5:e9:1f:4d:f8:21:67:48:6b:05:f5:
                    c4:df:d4:65:7b:ea:30:8e:b4:ad:64:5a:e3:5b:94:
                    cf:a2:6b:6e:5d:d1:16:26:de:59:0d:40:a1:28:68:
                    a6:b5:92:95:b8:8c:b7:df:f1:9a:7f:8c:b9:4a:15:
                    58:26:31:be:ab:f0:0b:d8:a4:df:c1:07:af:f1:91:
                    f4:01
                Exponent: 65537 (0x10001)
        X509v3 extensions:
            X509v3 Basic Constraints: critical
                CA:FALSE
            X509v3 Subject Key Identifier: 
                64:3F:0A:1C:42:2F:7C:BE:35:E4:E0:41:C5:F9:7A:2E:F8:08:F2:3E
            X509v3 Authority Key Identifier: 
                keyid:64:3F:0A:1C:42:2F:7C:BE:35:E4:E0:41:C5:F9:7A:2E:F8:08:F2:3E
                DirName:/O=NodeOPCUA/CN=NodeOPCUA
                serial:10:07

            X509v3 Subject Alternative Name: 
                URI:urn:localhost:NodeOPCUA-Server, DNS:localhost, DNS:localhost
            Netscape Comment: 
                OpenSSL Generated Certificate
            X509v3 Key Usage: critical
                Digital Signature, Non Repudiation, Key Encipherment, Data Encipherment, Key Agreement, Certificate Sign
            X509v3 Extended Key Usage: critical
                TLS Web Server Authentication, TLS Web Client Authentication
    Signature Algorithm: sha256WithRSAEncryption
         03:50:49:18:ec:45:80:ad:b4:22:28:9c:a5:2b:29:3e:5f:6c:
         d5:a4:e2:63:97:2f:74:fe:09:38:2c:d8:48:13:07:95:32:10:
         11:f9:2f:bd:c0:35:7f:1b:65:a0:39:14:80:7c:72:a2:19:fa:
         31:44:70:3d:fc:64:86:37:c0:12:0c:35:52:44:bf:1d:5d:a4:
         5f:df:d0:02:dd:3d:d1:bd:0a:c9:b4:d8:65:61:47:41:19:b9:
         ec:b1:72:9f:b6:dd:76:17:ea:24:bc:28:3a:16:b9:fe:8f:75:
         b1:2a:9a:77:ad:69:d1:67:d0:0a:7b:68:c9:2a:09:5e:68:aa:
         18:c7:99:31:09:5c:fa:48:21:e4:c0:7d:a2:fe:21:e8:60:9d:
         ba:d5:e0:92:b9:b8:4a:9e:9c:7b:97:04:70:c5:32:56:e2:94:
         05:ba:32:77:48:4f:c8:b8:cb:3a:9d:e4:13:ad:57:fc:aa:67:
         f1:a7:d8:4b:dc:bd:dd:70:ad:f2:aa:18:69:f6:c1:c0:12:ea:
         86:44:b5:bd:a0:f8:d0:3c:a9:58:ee:5e:82:60:05:9d:76:5c:
         30:c1:48:d8:92:a3:26:c8:08:6c:bd:81:d4:c9:26:20:a0:c1:
         b2:b2:16:30:9e:31:04:c0:10:c6:47:6a:b6:c5:54:d5:2b:f8:
         8e:b9:18:27
-----BEGIN CERTIFICATE-----
MIID9zCCAt+gAwIBAgICEAcwDQYJKoZIhvcNAQELBQAwKDESMBAGA1UEChMJTm9k
ZU9QQ1VBMRIwEAYDVQQDEwlOb2RlT1BDVUEwIhgPMjAxODA0MTkxNDEzMzRaGA8y
MDE5MDQxOTE0MTMzNFowKDESMBAGA1UEChMJTm9kZU9QQ1VBMRIwEAYDVQQDEwlO
b2RlT1BDVUEwggEiMA0GCSqGSIb3DQEBAQUAA4IBDwAwggEKAoIBAQCx4BT9wDKh
ysQ24Z44fKWtPxhuytKAjPdz3qjCQ94yZwVHCVwImw6GTcz6feEJ7N8/FNlqEhDh
6bU4axZRhBhko/xVVa+Hfh2auWcgY97Dmp0/9aLXk3yQnTHCfBxCHsE5t1gufjNI
8Aj+bohRFYsnkb1uFeBpzlkQdaUzGpHIQCVQYvP/g1zSCaDLQEfdM0z0bc4bxcX4
l5NXmGfHeJpEhKEmpGIn2+tZIW+f29J9DUP6H+CE7NO16R9N+CFnSGsF9cTf1GV7
6jCOtK1kWuNblM+ia25d0RYm3lkNQKEoaKa1kpW4jLff8Zp/jLlKFVgmMb6r8AvY
pN/BB6/xkfQBAgMBAAGjggElMIIBITAMBgNVHRMBAf8EAjAAMB0GA1UdDgQWBBRk
PwocQi98vjXk4EHF+Xou+AjyPjBRBgNVHSMESjBIgBRkPwocQi98vjXk4EHF+Xou
+AjyPqEspCowKDESMBAGA1UEChMJTm9kZU9QQ1VBMRIwEAYDVQQDEwlOb2RlT1BD
VUGCAhAHMD8GA1UdEQQ4MDaGHnVybjpsb2NhbGhvc3Q6Tm9kZU9QQ1VBLVNlcnZl
coIJbG9jYWxob3N0gglsb2NhbGhvc3QwLAYJYIZIAYb4QgENBB8WHU9wZW5TU0wg
R2VuZXJhdGVkIENlcnRpZmljYXRlMA4GA1UdDwEB/wQEAwIC/DAgBgNVHSUBAf8E
FjAUBggrBgEFBQcDAQYIKwYBBQUHAwIwDQYJKoZIhvcNAQELBQADggEBAANQSRjs
RYCttCIonKUrKT5fbNWk4mOXL3T+CTgs2EgTB5UyEBH5L73ANX8bZaA5FIB8cqIZ
+jFEcD38ZIY3wBIMNVJEvx1dpF/f0ALdPdG9Csm02GVhR0EZueyxcp+23XYX6iS8
KDoWuf6PdbEqmnetadFn0Ap7aMkqCV5oqhjHmTEJXPpIIeTAfaL+IehgnbrV4JK5
uEqenHuXBHDFMlbilAW6MndIT8i4yzqd5BOtV/yqZ/Gn2Evcvd1wrfKqGGn2wcAS
6oZEtb2g+NA8qVjuXoJgBZ12XDDBSNiSoybICGy9gdTJJiCgwbKyFjCeMQTAEMZH
arbFVNUr+I65GCc=
-----END CERTIFICATE-----
