Certificate:
    Data:
        Version: 3 (0x2)
        Serial Number: 4104 (0x1008)
    Signature Algorithm: sha256WithRSAEncryption
        Issuer: C=FR, ST=IDF, L=Paris, O=Local NODE-OPCUA Certificate Authority, CN=NodeOPCUA-CA
        Validity
            Not Before: Apr 19 14:13:34 2018 GMT
            Not After : Apr 19 14:13:34 2019 GMT
        Subject: C=FR, O=NodeOPCUA, CN=NodeOPCUA
        Subject Public Key Info:
            Public Key Algorithm: rsaEncryption
                Public-Key: (1024 bit)
                Modulus:
                    00:b5:f1:7f:51:a2:5a:8d:4a:a5:cb:8c:0b:5c:c1:
                    26:80:99:95:1c:5d:ac:84:c9:35:4a:11:9d:1b:f0:
                    6c:96:ed:51:cf:3b:de:24:cf:55:ba:6a:e9:28:ae:
                    a9:98:eb:fc:f7:04:99:b6:72:52:68:7b:22:86:7c:
                    eb:e7:8d:64:34:51:ab:ed:b7:de:28:b2:d8:3e:73:
                    09:32:57:33:24:95:67:65:af:c2:a3:3b:c1:e1:03:
                    d9:9a:90:f6:37:12:84:e0:63:5c:0a:ba:80:bf:ed:
                    f7:aa:8d:c6:90:00:af:f2:56:20:51:77:95:a2:60:
                    5a:e0:84:c4:9d:ec:08:8e:b5
                Exponent: 65537 (0x10001)
        X509v3 extensions:
            X509v3 Basic Constraints: critical
                CA:FALSE
            X509v3 Subject Key Identifier: 
                B1:F0:35:B6:40:AE:9B:83:5F:A7:34:5C:66:29:F9:E9:71:44:1F:D1
            X509v3 Authority Key Identifier: 
                keyid:DA:C7:A8:18:75:0A:DD:19:01:81:96:CA:42:A9:55:8B:73:48:7A:36
                DirName:/C=FR/ST=IDF/L=Paris/O=Local NODE-OPCUA Certificate Authority/CN=NodeOPCUA-CA
                serial:BF:DA:73:A9:03:D6:6E:9C

            X509v3 Subject Alternative Name: 
                URI:urn:localhost:NodeOPCUA-DiscoveryServer, DNS:localhost, DNS:localhost
            Netscape Comment: 
                OpenSSL Generated Certificate
            X509v3 Key Usage: critical
                Digital Signature, Non Repudiation, Key Encipherment, Data Encipherment, Key Agreement, Certificate Sign
            X509v3 Extended Key Usage: critical
                TLS Web Server Authentication, TLS Web Client Authentication
    Signature Algorithm: sha256WithRSAEncryption
         12:70:a2:59:d9:39:2a:86:c5:5f:d4:c4:61:06:1e:ac:e0:c0:
         19:9c:e0:1b:7d:66:cb:65:8f:19:d2:ac:92:c1:9a:d8:bf:b0:
         7b:4d:f6:9d:e9:8f:60:e3:f9:7b:07:aa:85:19:d4:a1:7f:57:
         5b:c5:fc:ae:dd:6e:aa:9d:5d:47:11:75:83:a5:03:83:44:c0:
         1d:10:c4:37:0e:f5:ec:88:00:d4:ea:8d:63:ea:8c:98:83:b3:
         c7:4d:92:21:cc:39:b6:20:f9:bc:fa:d0:bc:f4:36:c5:f0:94:
         9e:f9:f3:3a:a9:c9:05:56:e6:39:a6:2d:e2:ef:43:98:bc:c4:
         e3:14:5b:78:0b:29:68:ce:21:75:07:35:85:50:aa:49:82:18:
         84:ca:60:73:99:fe:77:b2:92:ef:60:c9:0f:2f:0f:dd:2b:f8:
         7d:ca:fe:a6:01:db:61:2d:7b:b9:31:62:05:3f:b4:6d:8d:4f:
         5c:ab:89:bf:ad:30:66:79:c8:1a:49:23:0b:43:13:52:d7:a7:
         56:1a:c2:4b:66:fb:af:9a:fe:56:22:31:bf:33:6b:51:9c:5a:
         69:ba:09:7f:60:f4:d1:4f:b5:2c:d9:76:6d:3c:d6:bf:3f:74:
         01:78:0b:96:37:e8:de:6a:54:6f:05:52:59:89:c2:13:c3:19:
         62:b8:ce:ce
-----BEGIN CERTIFICATE-----
MIIEKTCCAxGgAwIBAgICEAgwDQYJKoZIhvcNAQELBQAwczELMAkGA1UEBhMCRlIx
DDAKBgNVBAgTA0lERjEOMAwGA1UEBxMFUGFyaXMxLzAtBgNVBAoTJkxvY2FsIE5P
REUtT1BDVUEgQ2VydGlmaWNhdGUgQXV0aG9yaXR5MRUwEwYDVQQDEwxOb2RlT1BD
VUEtQ0EwIhgPMjAxODA0MTkxNDEzMzRaGA8yMDE5MDQxOTE0MTMzNFowNTELMAkG
A1UEBhMCRlIxEjAQBgNVBAoMCU5vZGVPUENVQTESMBAGA1UEAwwJTm9kZU9QQ1VB
MIGfMA0GCSqGSIb3DQEBAQUAA4GNADCBiQKBgQC18X9RolqNSqXLjAtcwSaAmZUc
XayEyTVKEZ0b8GyW7VHPO94kz1W6aukorqmY6/z3BJm2clJoeyKGfOvnjWQ0Uavt
t94ostg+cwkyVzMklWdlr8KjO8HhA9makPY3EoTgY1wKuoC/7feqjcaQAK/yViBR
d5WiYFrghMSd7AiOtQIDAQABo4IBgzCCAX8wDAYDVR0TAQH/BAIwADAdBgNVHQ4E
FgQUsfA1tkCum4NfpzRcZin56XFEH9EwgaUGA1UdIwSBnTCBmoAU2seoGHUK3RkB
gZbKQqlVi3NIejahd6R1MHMxCzAJBgNVBAYTAkZSMQwwCgYDVQQIEwNJREYxDjAM
BgNVBAcTBVBhcmlzMS8wLQYDVQQKEyZMb2NhbCBOT0RFLU9QQ1VBIENlcnRpZmlj
YXRlIEF1dGhvcml0eTEVMBMGA1UEAxMMTm9kZU9QQ1VBLUNBggkAv9pzqQPWbpww
SAYDVR0RBEEwP4YndXJuOmxvY2FsaG9zdDpOb2RlT1BDVUEtRGlzY292ZXJ5U2Vy
dmVygglsb2NhbGhvc3SCCWxvY2FsaG9zdDAsBglghkgBhvhCAQ0EHxYdT3BlblNT
TCBHZW5lcmF0ZWQgQ2VydGlmaWNhdGUwDgYDVR0PAQH/BAQDAgL8MCAGA1UdJQEB
/wQWMBQGCCsGAQUFBwMBBggrBgEFBQcDAjANBgkqhkiG9w0BAQsFAAOCAQEAEnCi
Wdk5KobFX9TEYQYerODAGZzgG31my2WPGdKsksGa2L+we032nemPYOP5eweqhRnU
oX9XW8X8rt1uqp1dRxF1g6UDg0TAHRDENw717IgA1OqNY+qMmIOzx02SIcw5tiD5
vPrQvPQ2xfCUnvnzOqnJBVbmOaYt4u9DmLzE4xRbeAspaM4hdQc1hVCqSYIYhMpg
c5n+d7KS72DJDy8P3Sv4fcr+pgHbYS17uTFiBT+0bY1PXKuJv60wZnnIGkkjC0MT
UtenVhrCS2b7r5r+ViIxvzNrUZxaaboJf2D00U+1LNl2bTzWvz90AXgLljfo3mpU
bwVSWYnCE8MZYrjOzg==
-----END CERTIFICATE-----
