Certificate:
    Data:
        Version: 3 (0x2)
        Serial Number: 4105 (0x1009)
    Signature Algorithm: sha256WithRSAEncryption
        Issuer: O=NodeOPCUA, CN=NodeOPCUA
        Validity
            Not Before: Apr 19 14:13:34 2018 GMT
            Not After : Apr 19 14:13:34 2019 GMT
        Subject: O=NodeOPCUA, CN=NodeOPCUA
        Subject Public Key Info:
            Public Key Algorithm: rsaEncryption
                Public-Key: (1024 bit)
                Modulus:
                    00:b5:f1:7f:51:a2:5a:8d:4a:a5:cb:8c:0b:5c:c1:
                    26:80:99:95:1c:5d:ac:84:c9:35:4a:11:9d:1b:f0:
                    6c:96:ed:51:cf:3b:de:24:cf:55:ba:6a:e9:28:ae:
                    a9:98:eb:fc:f7:04:99:b6:72:52:68:7b:22:86:7c:
                    eb:e7:8d:64:34:51:ab:ed:b7:de:28:b2:d8:3e:73:
                    09:32:57:33:24:95:67:65:af:c2:a3:3b:c1:e1:03:
                    d9:9a:90:f6:37:12:84:e0:63:5c:0a:ba:80:bf:ed:
                    f7:aa:8d:c6:90:00:af:f2:56:20:51:77:95:a2:60:
                    5a:e0:84:c4:9d:ec:08:8e:b5
                Exponent: 65537 (0x10001)
        X509v3 extensions:
            X509v3 Basic Constraints: critical
                CA:FALSE
            X509v3 Subject Key Identifier: 
                B1:F0:35:B6:40:AE:9B:83:5F:A7:34:5C:66:29:F9:E9:71:44:1F:D1
            X509v3 Authority Key Identifier: 
                keyid:B1:F0:35:B6:40:AE:9B:83:5F:A7:34:5C:66:29:F9:E9:71:44:1F:D1
                DirName:/O=NodeOPCUA/CN=NodeOPCUA
                serial:10:09

            X509v3 Subject Alternative Name: 
                URI:urn:localhost:NodeOPCUA-DiscoveryServer, DNS:localhost, DNS:localhost
            Netscape Comment: 
                OpenSSL Generated Certificate
            X509v3 Key Usage: critical
                Digital Signature, Non Repudiation, Key Encipherment, Data Encipherment, Key Agreement, Certificate Sign
            X509v3 Extended Key Usage: critical
                TLS Web Server Authentication, TLS Web Client Authentication
    Signature Algorithm: sha256WithRSAEncryption
         6f:9f:8b:4b:f6:21:9a:c3:7f:0a:ab:b7:f8:c3:ff:ae:dd:28:
         53:27:da:b3:2d:d9:d9:cf:08:b7:5d:51:c9:7e:ca:f3:97:24:
         19:67:66:de:85:b2:03:06:67:39:a0:8c:ae:a3:ef:11:e3:97:
         77:e1:ea:da:01:b8:60:aa:8d:fc:17:c6:37:bb:51:75:d6:4d:
         38:4c:65:4e:81:89:4a:5f:ed:f5:d9:3c:fc:6e:27:98:e6:e2:
         83:70:42:57:ec:b0:94:46:da:e6:bc:f4:df:d5:ac:e4:c9:27:
         e2:7b:d1:63:58:a3:fe:26:9b:bd:b0:36:6f:f9:1e:3a:63:70:
         25:0e
-----BEGIN CERTIFICATE-----
MIIC+zCCAmSgAwIBAgICEAkwDQYJKoZIhvcNAQELBQAwKDESMBAGA1UEChMJTm9k
ZU9QQ1VBMRIwEAYDVQQDEwlOb2RlT1BDVUEwIhgPMjAxODA0MTkxNDEzMzRaGA8y
MDE5MDQxOTE0MTMzNFowKDESMBAGA1UEChMJTm9kZU9QQ1VBMRIwEAYDVQQDEwlO
b2RlT1BDVUEwgZ8wDQYJKoZIhvcNAQEBBQADgY0AMIGJAoGBALXxf1GiWo1KpcuM
C1zBJoCZlRxdrITJNUoRnRvwbJbtUc873iTPVbpq6SiuqZjr/PcEmbZyUmh7IoZ8
6+eNZDRRq+233iiy2D5zCTJXMySVZ2WvwqM7weED2ZqQ9jcShOBjXAq6gL/t96qN
xpAAr/JWIFF3laJgWuCExJ3sCI61AgMBAAGjggEuMIIBKjAMBgNVHRMBAf8EAjAA
MB0GA1UdDgQWBBSx8DW2QK6bg1+nNFxmKfnpcUQf0TBRBgNVHSMESjBIgBSx8DW2
QK6bg1+nNFxmKfnpcUQf0aEspCowKDESMBAGA1UEChMJTm9kZU9QQ1VBMRIwEAYD
VQQDEwlOb2RlT1BDVUGCAhAJMEgGA1UdEQRBMD+GJ3Vybjpsb2NhbGhvc3Q6Tm9k
ZU9QQ1VBLURpc2NvdmVyeVNlcnZlcoIJbG9jYWxob3N0gglsb2NhbGhvc3QwLAYJ
YIZIAYb4QgENBB8WHU9wZW5TU0wgR2VuZXJhdGVkIENlcnRpZmljYXRlMA4GA1Ud
DwEB/wQEAwIC/DAgBgNVHSUBAf8EFjAUBggrBgEFBQcDAQYIKwYBBQUHAwIwDQYJ
KoZIhvcNAQELBQADgYEAb5+LS/YhmsN/Cqu3+MP/rt0oUyfasy3Z2c8It11RyX7K
85ckGWdm3oWyAwZnOaCMrqPvEeOXd+Hq2gG4YKqN/BfGN7tRddZNOExlToGJSl/t
9dk8/G4nmObig3BCV+ywlEba5rz039Ws5Mkn4nvRY1ij/iabvbA2b/keOmNwJQ4=
-----END CERTIFICATE-----
