Certificate:
    Data:
        Version: 3 (0x2)
        Serial Number: 4106 (0x100a)
    Signature Algorithm: sha256WithRSAEncryption
        Issuer: C=FR, ST=IDF, L=Paris, O=Local NODE-OPCUA Certificate Authority, CN=NodeOPCUA-CA
        Validity
            Not Before: Apr 19 14:13:34 2018 GMT
            Not After : Apr 19 14:13:34 2019 GMT
        Subject: C=FR, O=NodeOPCUA, CN=NodeOPCUA
        Subject Public Key Info:
            Public Key Algorithm: rsaEncryption
                Public-Key: (2048 bit)
                Modulus:
                    00:da:f1:01:15:2e:62:9c:4e:4f:66:c8:e5:a7:4a:
                    56:4d:63:17:fe:2d:5c:2a:42:cf:50:58:bf:bb:e8:
                    55:0a:f3:ca:e5:0c:13:e9:fd:f5:ba:87:b6:71:14:
                    08:40:b7:a7:80:e1:73:6d:da:67:74:da:e0:2d:6a:
                    d1:f1:45:9f:69:b3:18:65:cb:45:8f:c6:d8:2a:16:
                    f1:e4:ba:c9:e4:c7:6d:fa:53:0b:42:c0:58:ee:e3:
                    82:ac:0d:19:1c:1c:7b:65:c6:78:a8:a0:4d:28:7c:
                    c5:a6:cc:95:db:df:79:81:e7:6a:23:bf:e5:f5:d1:
                    1a:29:b2:d7:80:36:54:df:bf:6b:0a:86:2c:f2:3b:
                    e1:3e:cf:1b:4d:b2:9b:5a:e2:a7:fa:35:d7:de:c4:
                    4c:2a:a9:c9:8b:15:97:f1:a4:84:30:78:3f:72:a5:
                    48:24:67:8f:de:6d:a2:0c:54:25:3e:4f:6d:f0:12:
                    bc:34:3d:d9:a1:7f:b9:d6:cf:04:8f:76:c5:d3:0a:
                    2f:c8:a1:cc:db:0c:86:82:15:88:c0:32:88:de:66:
                    dd:c2:2d:fa:6d:fc:b1:63:71:ae:30:84:f6:6d:63:
                    6c:44:1a:19:e7:85:68:d4:dd:30:ab:0f:db:f0:bc:
                    ca:a8:29:9f:33:9d:f0:33:9c:a5:34:90:84:db:ae:
                    93:5f
                Exponent: 65537 (0x10001)
        X509v3 extensions:
            X509v3 Basic Constraints: critical
                CA:FALSE
            X509v3 Subject Key Identifier: 
                45:B4:86:36:EC:CF:11:BC:82:E2:FD:62:1B:C4:E9:85:62:89:B9:9F
            X509v3 Authority Key Identifier: 
                keyid:DA:C7:A8:18:75:0A:DD:19:01:81:96:CA:42:A9:55:8B:73:48:7A:36
                DirName:/C=FR/ST=IDF/L=Paris/O=Local NODE-OPCUA Certificate Authority/CN=NodeOPCUA-CA
                serial:BF:DA:73:A9:03:D6:6E:9C

            X509v3 Subject Alternative Name: 
                URI:urn:localhost:NodeOPCUA-DiscoveryServer, DNS:localhost, DNS:localhost
            Netscape Comment: 
                OpenSSL Generated Certificate
            X509v3 Key Usage: critical
                Digital Signature, Non Repudiation, Key Encipherment, Data Encipherment, Key Agreement, Certificate Sign
            X509v3 Extended Key Usage: critical
                TLS Web Server Authentication, TLS Web Client Authentication
    Signature Algorithm: sha256WithRSAEncryption
         91:71:3c:13:c7:54:76:a6:6a:aa:d3:98:c9:42:cc:7a:8a:71:
         7a:94:2b:1e:6a:5e:bf:52:66:d2:01:cc:8b:64:01:21:fd:dc:
         38:00:22:3a:13:13:56:5e:7d:f6:de:10:97:50:33:22:53:96:
         fd:3a:26:80:6e:85:39:de:fa:cb:a6:b1:56:60:56:2e:30:8a:
         4c:06:d5:a2:7d:d8:59:9f:80:55:76:80:e9:bc:57:0b:4b:ca:
         88:3e:6e:35:0e:c8:84:fa:a8:e4:47:ff:12:8f:01:75:07:da:
         f3:1b:ea:75:d3:e7:d9:4a:29:2d:fd:41:24:4e:ec:e2:1e:c0:
         57:94:26:4d:91:2a:30:ab:0d:2f:65:6b:c9:a9:a7:3b:8c:c6:
         2d:6f:7c:87:35:ae:bb:47:88:80:18:42:7e:24:22:e5:0b:dc:
         b3:5c:60:24:d6:c5:6e:f9:11:bd:7a:6c:66:09:7b:9b:b7:ba:
         3e:03:99:cd:0a:49:9c:cd:09:66:f4:e1:10:2d:83:ba:f3:c1:
         b8:11:ec:7b:5a:b5:23:16:70:28:e4:2c:52:81:82:af:bc:61:
         a9:01:2c:db:0e:4f:62:71:87:4e:5d:37:9e:1f:82:3a:62:9d:
         07:3d:45:b9:37:be:08:3f:0c:a1:d5:e7:f6:d3:51:8a:a3:dd:
         b3:88:5b:e2
-----BEGIN CERTIFICATE-----
MIIErTCCA5WgAwIBAgICEAowDQYJKoZIhvcNAQELBQAwczELMAkGA1UEBhMCRlIx
DDAKBgNVBAgTA0lERjEOMAwGA1UEBxMFUGFyaXMxLzAtBgNVBAoTJkxvY2FsIE5P
REUtT1BDVUEgQ2VydGlmaWNhdGUgQXV0aG9yaXR5MRUwEwYDVQQDEwxOb2RlT1BD
VUEtQ0EwIhgPMjAxODA0MTkxNDEzMzRaGA8yMDE5MDQxOTE0MTMzNFowNTELMAkG
A1UEBhMCRlIxEjAQBgNVBAoMCU5vZGVPUENVQTESMBAGA1UEAwwJTm9kZU9QQ1VB
MIIBIjANBgkqhkiG9w0BAQEFAAOCAQ8AMIIBCgKCAQEA2vEBFS5inE5PZsjlp0pW
TWMX/i1cKkLPUFi/u+hVCvPK5QwT6f31uoe2cRQIQLengOFzbdpndNrgLWrR8UWf
abMYZctFj8bYKhbx5LrJ5Mdt+lMLQsBY7uOCrA0ZHBx7ZcZ4qKBNKHzFpsyV2995
gedqI7/l9dEaKbLXgDZU379rCoYs8jvhPs8bTbKbWuKn+jXX3sRMKqnJixWX8aSE
MHg/cqVIJGeP3m2iDFQlPk9t8BK8ND3ZoX+51s8Ej3bF0wovyKHM2wyGghWIwDKI
3mbdwi36bfyxY3GuMIT2bWNsRBoZ54Vo1N0wqw/b8LzKqCmfM53wM5ylNJCE266T
XwIDAQABo4IBgzCCAX8wDAYDVR0TAQH/BAIwADAdBgNVHQ4EFgQURbSGNuzPEbyC
4v1iG8TphWKJuZ8wgaUGA1UdIwSBnTCBmoAU2seoGHUK3RkBgZbKQqlVi3NIejah
d6R1MHMxCzAJBgNVBAYTAkZSMQwwCgYDVQQIEwNJREYxDjAMBgNVBAcTBVBhcmlz
MS8wLQYDVQQKEyZMb2NhbCBOT0RFLU9QQ1VBIENlcnRpZmljYXRlIEF1dGhvcml0
eTEVMBMGA1UEAxMMTm9kZU9QQ1VBLUNBggkAv9pzqQPWbpwwSAYDVR0RBEEwP4Yn
dXJuOmxvY2FsaG9zdDpOb2RlT1BDVUEtRGlzY292ZXJ5U2VydmVygglsb2NhbGhv
c3SCCWxvY2FsaG9zdDAsBglghkgBhvhCAQ0EHxYdT3BlblNTTCBHZW5lcmF0ZWQg
Q2VydGlmaWNhdGUwDgYDVR0PAQH/BAQDAgL8MCAGA1UdJQEB/wQWMBQGCCsGAQUF
BwMBBggrBgEFBQcDAjANBgkqhkiG9w0BAQsFAAOCAQEAkXE8E8dUdqZqqtOYyULM
eopxepQrHmpev1Jm0gHMi2QBIf3cOAAiOhMTVl599t4Ql1AzIlOW/TomgG6FOd76
y6axVmBWLjCKTAbVon3YWZ+AVXaA6bxXC0vKiD5uNQ7IhPqo5Ef/Eo8BdQfa8xvq
ddPn2UopLf1BJE7s4h7AV5QmTZEqMKsNL2VryamnO4zGLW98hzWuu0eIgBhCfiQi
5Qvcs1xgJNbFbvkRvXpsZgl7m7e6PgOZzQpJnM0JZvThEC2DuvPBuBHse1q1IxZw
KOQsUoGCr7xhqQEs2w5PYnGHTl03nh+COmKdBz1FuTe+CD8ModXn9tNRiqPds4hb
4g==
-----END CERTIFICATE-----
