Certificate:
    Data:
        Version: 3 (0x2)
        Serial Number: 4107 (0x100b)
    Signature Algorithm: sha256WithRSAEncryption
        Issuer: O=NodeOPCUA, CN=NodeOPCUA
        Validity
            Not Before: Apr 19 14:13:34 2018 GMT
            Not After : Apr 19 14:13:34 2019 GMT
        Subject: O=NodeOPCUA, CN=NodeOPCUA
        Subject Public Key Info:
            Public Key Algorithm: rsaEncryption
                Public-Key: (2048 bit)
                Modulus:
                    00:da:f1:01:15:2e:62:9c:4e:4f:66:c8:e5:a7:4a:
                    56:4d:63:17:fe:2d:5c:2a:42:cf:50:58:bf:bb:e8:
                    55:0a:f3:ca:e5:0c:13:e9:fd:f5:ba:87:b6:71:14:
                    08:40:b7:a7:80:e1:73:6d:da:67:74:da:e0:2d:6a:
                    d1:f1:45:9f:69:b3:18:65:cb:45:8f:c6:d8:2a:16:
                    f1:e4:ba:c9:e4:c7:6d:fa:53:0b:42:c0:58:ee:e3:
                    82:ac:0d:19:1c:1c:7b:65:c6:78:a8:a0:4d:28:7c:
                    c5:a6:cc:95:db:df:79:81:e7:6a:23:bf:e5:f5:d1:
                    1a:29:b2:d7:80:36:54:df:bf:6b:0a:86:2c:f2:3b:
                    e1:3e:cf:1b:4d:b2:9b:5a:e2:a7:fa:35:d7:de:c4:
                    4c:2a:a9:c9:8b:15:97:f1:a4:84:30:78:3f:72:a5:
                    48:24:67:8f:de:6d:a2:0c:54:25:3e:4f:6d:f0:12:
                    bc:34:3d:d9:a1:7f:b9:d6:cf:04:8f:76:c5:d3:0a:
                    2f:c8:a1:cc:db:0c:86:82:15:88:c0:32:88:de:66:
                    dd:c2:2d:fa:6d:fc:b1:63:71:ae:30:84:f6:6d:63:
                    6c:44:1a:19:e7:85:68:d4:dd:30:ab:0f:db:f0:bc:
                    ca:a8:29:9f:33:9d:f0:33:9c:a5:34:90:84:db:ae:
                    93:5f
                Exponent: 65537 (0x10001)
        X509v3 extensions:
            X509v3 Basic Constraints: critical
                CA:FALSE
            X509v3 Subject Key Identifier: 
                45:B4:86:36:EC:CF:11:BC:82:E2:FD:62:1B:C4:E9:85:62:89:B9:9F
            X509v3 Authority Key Identifier: 
                keyid:45:B4:86:36:EC:CF:11:BC:82:E2:FD:62:1B:C4:E9:85:62:89:B9:9F
                DirName:/O=NodeOPCUA/CN=NodeOPCUA
                serial:10:0B

            X509v3 Subject Alternative Name: 
                URI:urn:localhost:NodeOPCUA-DiscoveryServer, DNS:localhost, DNS:localhost
            Netscape Comment: 
                OpenSSL Generated Certificate
            X509v3 Key Usage: critical
                Digital Signature, Non Repudiation, Key Encipherment, Data Encipherment, Key Agreement, Certificate Sign
            X509v3 Extended Key Usage: critical
                TLS Web Server Authentication, TLS Web Client Authentication
    Signature Algorithm: sha256WithRSAEncryption
         b8:0d:43:5d:de:a1:58:76:0e:de:9b:d4:5d:59:11:31:05:8b:
         a7:30:90:ea:2c:62:24:dc:0e:5d:66:49:0c:f7:c5:24:50:68:
         49:6d:96:9e:a5:ee:12:9c:da:b0:01:ab:ca:3d:28:82:00:c6:
         e6:5b:e4:b9:fd:d3:97:ce:b0:25:32:b3:04:f5:4f:06:c2:f4:
         6f:15:ba:3c:42:e5:2e:21:2a:44:a0:94:8f:79:7e:14:5d:dd:
         04:d4:db:27:8d:b5:a9:b5:42:f2:cc:b1:e3:77:11:55:5b:03:
         59:61:b8:19:43:d0:2f:22:9c:61:86:9f:c7:1b:6f:f1:66:60:
         2e:04:59:63:7c:99:74:0b:ca:04:25:a1:eb:b4:f6:fa:cd:04:
         e6:dc:e1:66:ae:6c:38:05:6d:f6:2c:88:dd:56:b2:a1:67:5d:
         f8:a1:3e:48:06:67:4f:02:bd:c3:0d:36:95:64:b2:6c:f9:e3:
         8c:9b:b6:9b:28:27:52:4e:89:2f:c3:97:45:1b:83:cb:e3:b0:
         3b:04:8b:c5:70:e8:c9:d0:a5:58:40:18:91:5c:1a:f1:2c:72:
         bf:47:b3:86:cb:06:e3:61:ad:5c:5b:68:ab:ba:40:e6:f3:c4:
         87:f8:aa:1d:f6:e3:0e:59:9a:1f:1f:11:66:26:8c:bc:ae:91:
         8e:39:e2:d7
-----BEGIN CERTIFICATE-----
MIIEADCCAuigAwIBAgICEAswDQYJKoZIhvcNAQELBQAwKDESMBAGA1UEChMJTm9k
ZU9QQ1VBMRIwEAYDVQQDEwlOb2RlT1BDVUEwIhgPMjAxODA0MTkxNDEzMzRaGA8y
MDE5MDQxOTE0MTMzNFowKDESMBAGA1UEChMJTm9kZU9QQ1VBMRIwEAYDVQQDEwlO
b2RlT1BDVUEwggEiMA0GCSqGSIb3DQEBAQUAA4IBDwAwggEKAoIBAQDa8QEVLmKc
Tk9myOWnSlZNYxf+LVwqQs9QWL+76FUK88rlDBPp/fW6h7ZxFAhAt6eA4XNt2md0
2uAtatHxRZ9psxhly0WPxtgqFvHkusnkx236UwtCwFju44KsDRkcHHtlxniooE0o
fMWmzJXb33mB52ojv+X10RopsteANlTfv2sKhizyO+E+zxtNspta4qf6NdfexEwq
qcmLFZfxpIQweD9ypUgkZ4/ebaIMVCU+T23wErw0Pdmhf7nWzwSPdsXTCi/Ioczb
DIaCFYjAMojeZt3CLfpt/LFjca4whPZtY2xEGhnnhWjU3TCrD9vwvMqoKZ8znfAz
nKU0kITbrpNfAgMBAAGjggEuMIIBKjAMBgNVHRMBAf8EAjAAMB0GA1UdDgQWBBRF
tIY27M8RvILi/WIbxOmFYom5nzBRBgNVHSMESjBIgBRFtIY27M8RvILi/WIbxOmF
Yom5n6EspCowKDESMBAGA1UEChMJTm9kZU9QQ1VBMRIwEAYDVQQDEwlOb2RlT1BD
VUGCAhALMEgGA1UdEQRBMD+GJ3Vybjpsb2NhbGhvc3Q6Tm9kZU9QQ1VBLURpc2Nv
dmVyeVNlcnZlcoIJbG9jYWxob3N0gglsb2NhbGhvc3QwLAYJYIZIAYb4QgENBB8W
HU9wZW5TU0wgR2VuZXJhdGVkIENlcnRpZmljYXRlMA4GA1UdDwEB/wQEAwIC/DAg
BgNVHSUBAf8EFjAUBggrBgEFBQcDAQYIKwYBBQUHAwIwDQYJKoZIhvcNAQELBQAD
ggEBALgNQ13eoVh2Dt6b1F1ZETEFi6cwkOosYiTcDl1mSQz3xSRQaEltlp6l7hKc
2rABq8o9KIIAxuZb5Ln905fOsCUyswT1TwbC9G8VujxC5S4hKkSglI95fhRd3QTU
2yeNtam1QvLMseN3EVVbA1lhuBlD0C8inGGGn8cbb/FmYC4EWWN8mXQLygQloeu0
9vrNBObc4WaubDgFbfYsiN1WsqFnXfihPkgGZ08CvcMNNpVksmz544ybtpsoJ1JO
iS/Dl0Ubg8vjsDsEi8Vw6MnQpVhAGJFcGvEscr9Hs4bLBuNhrVxbaKu6QObzxIf4
qh324w5Zmh8fEWYmjLyukY454tc=
-----END CERTIFICATE-----
