Certificate Request:
    Data:
        Version: 0 (0x0)
        Subject: C=FR, ST=IDF, L=Paris, O=Fake CA for Test, CN=NodeOPCUA
        Subject Public Key Info:
            Public Key Algorithm: rsaEncryption
                Public-Key: (2048 bit)
                Modulus:
                    00:c2:8f:25:6c:25:07:0a:ba:6f:4a:ff:1b:3e:2a:
                    cb:78:59:9d:33:0c:8d:c6:8e:d9:11:0f:37:34:d2:
                    56:b4:62:82:8e:67:37:a1:04:0e:37:28:d7:68:c6:
                    97:4c:4c:91:61:47:16:36:31:fd:5a:32:ef:d8:be:
                    99:de:68:da:56:63:cb:00:d9:6b:d3:db:ee:cf:cf:
                    d0:3c:fc:0c:b9:b4:d6:60:74:f4:43:5c:9f:2f:e6:
                    08:03:0f:b6:7c:27:be:0d:25:77:e9:46:9b:01:e1:
                    52:07:be:af:39:c0:fe:15:15:2f:81:3f:8f:da:7c:
                    61:9f:6b:b8:d0:de:21:3e:b3:40:f1:2f:2f:a9:34:
                    c8:23:12:b5:fa:83:1a:21:34:78:31:43:fa:10:7d:
                    ea:a6:f1:f2:f1:04:04:3f:e6:80:e9:9d:87:a1:d6:
                    9c:fc:f1:ab:c1:ba:bf:56:bf:f0:f8:51:ef:44:9b:
                    96:6e:2c:00:db:f2:13:8f:27:0a:85:e8:01:24:32:
                    fc:5d:b8:4c:a8:bc:5e:b3:85:62:cf:74:6e:1b:fd:
                    bd:9a:3e:ec:7d:0c:4a:12:e8:14:7f:93:26:41:73:
                    e4:6f:71:dc:30:5d:3f:12:f1:41:b5:8f:34:63:78:
                    29:04:f1:ad:f3:6e:fc:d3:a3:5f:8c:a4:34:fa:5a:
                    d1:25
                Exponent: 65537 (0x10001)
        Attributes:
        Requested Extensions:
            X509v3 Basic Constraints: critical
                CA:FALSE
            X509v3 Key Usage: 
                Digital Signature, Non Repudiation, Key Encipherment, Data Encipherment, Key Agreement
            X509v3 Subject Alternative Name: 
                URI:, DNS:, DNS:
            Netscape Comment: 
                CA Generated by Node-OPCUA Certificate utility using openssl
    Signature Algorithm: sha256WithRSAEncryption
         b2:b7:2a:cb:cb:6c:dc:15:93:4e:bd:15:29:ce:2d:aa:9d:ff:
         08:41:86:c7:7c:70:cd:be:32:e9:50:00:76:14:7c:53:1a:cc:
         27:be:fc:ae:13:60:aa:b6:cb:5f:80:fb:73:0c:86:cd:a9:63:
         f3:08:32:2b:8c:e4:5d:cb:0c:16:19:d7:b5:42:54:03:d2:da:
         83:a9:8d:cc:ed:b0:59:a5:f6:70:f8:88:23:f3:16:0e:7b:25:
         15:a8:9f:29:5e:43:01:8a:81:ec:81:cd:00:30:31:66:32:06:
         94:55:29:56:d9:c7:e1:d3:9d:4c:48:64:47:b1:15:af:92:b7:
         ae:40:17:ec:9f:c7:6d:cd:0d:55:63:20:45:05:b3:68:27:80:
         7e:ed:05:b4:51:52:d2:96:6c:a0:67:df:09:f0:82:c5:5b:bc:
         25:ae:eb:19:31:ea:05:1f:80:27:f4:3c:d6:76:2d:52:db:0d:
         ca:b3:b9:31:2d:5d:15:2c:fd:60:04:7b:3f:6f:dd:b5:9f:c3:
         05:a6:38:3a:a8:b2:56:22:9e:0a:af:fc:6e:20:1a:02:82:d4:
         75:2f:dc:21:46:e8:1a:ff:ec:f2:30:06:42:cd:12:07:b2:e4:
         8a:ba:60:7a:f0:88:74:1f:38:ac:e6:e7:7d:d6:3f:b2:93:66:
         67:54:b0:ac
-----BEGIN CERTIFICATE REQUEST-----
MIIDKzCCAhMCAQAwWjELMAkGA1UEBhMCRlIxDDAKBgNVBAgTA0lERjEOMAwGA1UE
BxMFUGFyaXMxGTAXBgNVBAoTEEZha2UgQ0EgZm9yIFRlc3QxEjAQBgNVBAMTCU5v
ZGVPUENVQTCCASIwDQYJKoZIhvcNAQEBBQADggEPADCCAQoCggEBAMKPJWwlBwq6
b0r/Gz4qy3hZnTMMjcaO2REPNzTSVrRigo5nN6EEDjco12jGl0xMkWFHFjYx/Voy
79i+md5o2lZjywDZa9Pb7s/P0Dz8DLm01mB09ENcny/mCAMPtnwnvg0ld+lGmwHh
Uge+rznA/hUVL4E/j9p8YZ9ruNDeIT6zQPEvL6k0yCMStfqDGiE0eDFD+hB96qbx
8vEEBD/mgOmdh6HWnPzxq8G6v1a/8PhR70Sblm4sANvyE48nCoXoASQy/F24TKi8
XrOFYs90bhv9vZo+7H0MShLoFH+TJkFz5G9x3DBdPxLxQbWPNGN4KQTxrfNu/NOj
X4ykNPpa0SUCAwEAAaCBizCBiAYJKoZIhvcNAQkOMXsweTAMBgNVHRMBAf8EAjAA
MAsGA1UdDwQEAwID+DAPBgNVHREECDAGhgCCAIIAMEsGCWCGSAGG+EIBDQQ+FjxD
QSBHZW5lcmF0ZWQgYnkgTm9kZS1PUENVQSBDZXJ0aWZpY2F0ZSB1dGlsaXR5IHVz
aW5nIG9wZW5zc2wwDQYJKoZIhvcNAQELBQADggEBALK3KsvLbNwVk069FSnOLaqd
/whBhsd8cM2+MulQAHYUfFMazCe+/K4TYKq2y1+A+3MMhs2pY/MIMiuM5F3LDBYZ
17VCVAPS2oOpjcztsFml9nD4iCPzFg57JRWonyleQwGKgeyBzQAwMWYyBpRVKVbZ
x+HTnUxIZEexFa+St65AF+yfx23NDVVjIEUFs2gngH7tBbRRUtKWbKBn3wnwgsVb
vCWu6xkx6gUfgCf0PNZ2LVLbDcqzuTEtXRUs/WAEez9v3bWfwwWmODqoslYingqv
/G4gGgKC1HUv3CFG6Br/7PIwBkLNEgey5Iq6YHrwiHQfOKzm533WP7KTZmdUsKw=
-----END CERTIFICATE REQUEST-----
